
os.elf:     file format elf64-littleriscv


Disassembly of section .text:

0000000080000000 <_start>:
    80000000:	f14022f3          	csrr	t0,mhartid
    80000004:	0a029063          	bnez	t0,800000a4 <_end>
    80000008:	00031517          	auipc	a0,0x31
    8000000c:	1b850513          	addi	a0,a0,440 # 800311c0 <_ZN3sos14page_allocator11ALLOC_START17h109755aa89b4e5bbE>
    80000010:	00031597          	auipc	a1,0x31
    80000014:	1d858593          	addi	a1,a1,472 # 800311e8 <_bss_end>
    80000018:	00b57863          	bgeu	a0,a1,80000028 <_start+0x28>
    8000001c:	00053023          	sd	zero,0(a0)
    80000020:	00850513          	addi	a0,a0,8
    80000024:	feb56ce3          	bltu	a0,a1,8000001c <_start+0x1c>
    80000028:	0010029b          	addiw	t0,zero,1
    8000002c:	02029293          	slli	t0,t0,0x20
    80000030:	fff28293          	addi	t0,t0,-1
    80000034:	3b029073          	csrw	pmpaddr0,t0
    80000038:	0ff00293          	li	t0,255
    8000003c:	3a029073          	csrw	pmpcfg0,t0
    80000040:	18001073          	csrw	satp,zero
    80000044:	000b1117          	auipc	sp,0xb1
    80000048:	fa410113          	addi	sp,sp,-92 # 800b0fe8 <_mscratch_first>
    8000004c:	000012b7          	lui	t0,0x1
    80000050:	8882829b          	addiw	t0,t0,-1912 # 888 <$d.26+0x23>
    80000054:	30029073          	csrw	mstatus,t0
    80000058:	00001317          	auipc	t1,0x1
    8000005c:	37830313          	addi	t1,t1,888 # 800013d0 <kmain>
    80000060:	34131073          	csrw	mepc,t1
    80000064:	004c52b7          	lui	t0,0x4c5
    80000068:	b402829b          	addiw	t0,t0,-1216 # 4c4b40 <$d.6+0x498a30>
    8000006c:	02004337          	lui	t1,0x2004
    80000070:	00533023          	sd	t0,0(t1) # 2004000 <$d.6+0x1fd7ef0>
    80000074:	00001e37          	lui	t3,0x1
    80000078:	888e0e1b          	addiw	t3,t3,-1912 # 888 <$d.26+0x23>
    8000007c:	304e1073          	csrw	mie,t3
    80000080:	00000397          	auipc	t2,0x0
    80000084:	03038393          	addi	t2,t2,48 # 800000b0 <asm_trap_vector>
    80000088:	30539073          	csrw	mtvec,t2
    8000008c:	00000097          	auipc	ra,0x0
    80000090:	01808093          	addi	ra,ra,24 # 800000a4 <_end>
    80000094:	000b1397          	auipc	t2,0xb1
    80000098:	f5438393          	addi	t2,t2,-172 # 800b0fe8 <_mscratch_first>
    8000009c:	34039073          	csrw	mscratch,t2
    800000a0:	30200073          	mret

00000000800000a4 <_end>:
    800000a4:	10500073          	wfi
    800000a8:	ffdff06f          	j	800000a4 <_end>
    800000ac:	0000                	.insn	2, 0x
	...

00000000800000b0 <asm_trap_vector>:
    800000b0:	340f9ff3          	csrrw	t6,mscratch,t6
    800000b4:	001fb023          	sd	ra,0(t6)
    800000b8:	002fb423          	sd	sp,8(t6)
    800000bc:	003fb823          	sd	gp,16(t6)
    800000c0:	004fbc23          	sd	tp,24(t6)
    800000c4:	025fb023          	sd	t0,32(t6)
    800000c8:	026fb423          	sd	t1,40(t6)
    800000cc:	027fb823          	sd	t2,48(t6)
    800000d0:	028fbc23          	sd	s0,56(t6)
    800000d4:	049fb023          	sd	s1,64(t6)
    800000d8:	04afb423          	sd	a0,72(t6)
    800000dc:	04bfb823          	sd	a1,80(t6)
    800000e0:	04cfbc23          	sd	a2,88(t6)
    800000e4:	06dfb023          	sd	a3,96(t6)
    800000e8:	06efb423          	sd	a4,104(t6)
    800000ec:	06ffb823          	sd	a5,112(t6)
    800000f0:	070fbc23          	sd	a6,120(t6)
    800000f4:	091fb023          	sd	a7,128(t6)
    800000f8:	092fb423          	sd	s2,136(t6)
    800000fc:	093fb823          	sd	s3,144(t6)
    80000100:	094fbc23          	sd	s4,152(t6)
    80000104:	0b5fb023          	sd	s5,160(t6)
    80000108:	0b6fb423          	sd	s6,168(t6)
    8000010c:	0b7fb823          	sd	s7,176(t6)
    80000110:	0b8fbc23          	sd	s8,184(t6)
    80000114:	0d9fb023          	sd	s9,192(t6)
    80000118:	0dafb423          	sd	s10,200(t6)
    8000011c:	0dbfb823          	sd	s11,208(t6)
    80000120:	0dcfbc23          	sd	t3,216(t6)
    80000124:	0fdfb023          	sd	t4,224(t6)
    80000128:	0fefb423          	sd	t5,232(t6)
    8000012c:	000f8f33          	add	t5,t6,zero
    80000130:	34002ff3          	csrr	t6,mscratch
    80000134:	0fff3823          	sd	t6,240(t5)
    80000138:	340f1073          	csrw	mscratch,t5
    8000013c:	122000ef          	jal	8000025e <m_trap>
    80000140:	34151073          	csrw	mepc,a0
    80000144:	34002ff3          	csrr	t6,mscratch
    80000148:	000fb083          	ld	ra,0(t6)
    8000014c:	008fb103          	ld	sp,8(t6)
    80000150:	010fb183          	ld	gp,16(t6)
    80000154:	018fb203          	ld	tp,24(t6)
    80000158:	020fb283          	ld	t0,32(t6)
    8000015c:	028fb303          	ld	t1,40(t6)
    80000160:	030fb383          	ld	t2,48(t6)
    80000164:	038fb403          	ld	s0,56(t6)
    80000168:	040fb483          	ld	s1,64(t6)
    8000016c:	048fb503          	ld	a0,72(t6)
    80000170:	050fb583          	ld	a1,80(t6)
    80000174:	058fb603          	ld	a2,88(t6)
    80000178:	060fb683          	ld	a3,96(t6)
    8000017c:	068fb703          	ld	a4,104(t6)
    80000180:	070fb783          	ld	a5,112(t6)
    80000184:	078fb803          	ld	a6,120(t6)
    80000188:	080fb883          	ld	a7,128(t6)
    8000018c:	088fb903          	ld	s2,136(t6)
    80000190:	090fb983          	ld	s3,144(t6)
    80000194:	098fba03          	ld	s4,152(t6)
    80000198:	0a0fba83          	ld	s5,160(t6)
    8000019c:	0a8fbb03          	ld	s6,168(t6)
    800001a0:	0b0fbb83          	ld	s7,176(t6)
    800001a4:	0b8fbc03          	ld	s8,184(t6)
    800001a8:	0c0fbc83          	ld	s9,192(t6)
    800001ac:	0c8fbd03          	ld	s10,200(t6)
    800001b0:	0d0fbd83          	ld	s11,208(t6)
    800001b4:	0d8fbe03          	ld	t3,216(t6)
    800001b8:	0e0fbe83          	ld	t4,224(t6)
    800001bc:	0e8fbf03          	ld	t5,232(t6)
    800001c0:	0f0fbf83          	ld	t6,240(t6)
    800001c4:	30200073          	mret

00000000800001c8 <switch_to_other_process>:
    800001c8:	34051073          	csrw	mscratch,a0
    800001cc:	34159073          	csrw	mepc,a1
    800001d0:	8faa                	mv	t6,a0
    800001d2:	000fb083          	ld	ra,0(t6)
    800001d6:	008fb103          	ld	sp,8(t6)
    800001da:	010fb183          	ld	gp,16(t6)
    800001de:	018fb203          	ld	tp,24(t6)
    800001e2:	020fb283          	ld	t0,32(t6)
    800001e6:	028fb303          	ld	t1,40(t6)
    800001ea:	030fb383          	ld	t2,48(t6)
    800001ee:	038fb403          	ld	s0,56(t6)
    800001f2:	040fb483          	ld	s1,64(t6)
    800001f6:	048fb503          	ld	a0,72(t6)
    800001fa:	050fb583          	ld	a1,80(t6)
    800001fe:	058fb603          	ld	a2,88(t6)
    80000202:	060fb683          	ld	a3,96(t6)
    80000206:	068fb703          	ld	a4,104(t6)
    8000020a:	070fb783          	ld	a5,112(t6)
    8000020e:	078fb803          	ld	a6,120(t6)
    80000212:	080fb883          	ld	a7,128(t6)
    80000216:	088fb903          	ld	s2,136(t6)
    8000021a:	090fb983          	ld	s3,144(t6)
    8000021e:	098fba03          	ld	s4,152(t6)
    80000222:	0a0fba83          	ld	s5,160(t6)
    80000226:	0a8fbb03          	ld	s6,168(t6)
    8000022a:	0b0fbb83          	ld	s7,176(t6)
    8000022e:	0b8fbc03          	ld	s8,184(t6)
    80000232:	0c0fbc83          	ld	s9,192(t6)
    80000236:	0c8fbd03          	ld	s10,200(t6)
    8000023a:	0d0fbd83          	ld	s11,208(t6)
    8000023e:	0d8fbe03          	ld	t3,216(t6)
    80000242:	0e0fbe83          	ld	t4,224(t6)
    80000246:	0e8fbf03          	ld	t5,232(t6)
    8000024a:	0f0fbf83          	ld	t6,240(t6)
    8000024e:	30200073          	mret
	...

000000008000025e <m_trap>:
    8000025e:	81010113          	addi	sp,sp,-2032
    80000262:	7e113423          	sd	ra,2024(sp)
    80000266:	a0010113          	addi	sp,sp,-1536
    8000026a:	7ff10513          	addi	a0,sp,2047
    8000026e:	05950513          	addi	a0,a0,89
    80000272:	f92a                	sd	a0,176(sp)
    80000274:	00989537          	lui	a0,0x989
    80000278:	6805051b          	addiw	a0,a0,1664 # 989680 <$d.6+0x95d570>
    8000027c:	e5aa                	sd	a0,200(sp)
    8000027e:	00002097          	auipc	ra,0x2
    80000282:	aae080e7          	jalr	-1362(ra) # 80001d2c <_ZN3sos3reg9mepc_read17h76108dac4120bb87E>
    80000286:	e9aa                	sd	a0,208(sp)
    80000288:	00002097          	auipc	ra,0x2
    8000028c:	ab2080e7          	jalr	-1358(ra) # 80001d3a <_ZN3sos3reg10mtval_read17hafdca7674ef3244eE>
    80000290:	edaa                	sd	a0,216(sp)
    80000292:	00002097          	auipc	ra,0x2
    80000296:	ab6080e7          	jalr	-1354(ra) # 80001d48 <_ZN3sos3reg11mcause_read17hbc0a4a28d165fc53E>
    8000029a:	75ca                	ld	a1,176(sp)
    8000029c:	fd2a                	sd	a0,184(sp)
    8000029e:	18a5b023          	sd	a0,384(a1)
    800002a2:	00002097          	auipc	ra,0x2
    800002a6:	ab4080e7          	jalr	-1356(ra) # 80001d56 <_ZN3sos3reg12mhartid_read17h7d55a2f72ed4d1baE>
    800002aa:	f1aa                	sd	a0,224(sp)
    800002ac:	00002097          	auipc	ra,0x2
    800002b0:	ab8080e7          	jalr	-1352(ra) # 80001d64 <_ZN3sos3reg12mstatus_read17h8c9a8bb35acab77eE>
    800002b4:	764a                	ld	a2,176(sp)
    800002b6:	75ea                	ld	a1,184(sp)
    800002b8:	18a63423          	sd	a0,392(a2)
    800002bc:	03f5d513          	srli	a0,a1,0x3f
    800002c0:	e1aa                	sd	a0,192(sp)
    800002c2:	00153693          	seqz	a3,a0
    800002c6:	18d60b23          	sb	a3,406(a2)
    800002ca:	18a60ba3          	sb	a0,407(a2)
    800002ce:	15d2                	slli	a1,a1,0x34
    800002d0:	91d1                	srli	a1,a1,0x34
    800002d2:	f5ae                	sd	a1,232(sp)
    800002d4:	c901                	beqz	a0,800002e4 <m_trap+0x86>
    800002d6:	a009                	j	800002d8 <m_trap+0x7a>
    800002d8:	650e                	ld	a0,192(sp)
    800002da:	8905                	andi	a0,a0,1
    800002dc:	2c0512e3          	bnez	a0,80000da0 <m_trap+0xb42>
    800002e0:	2b10006f          	j	80000d90 <m_trap+0xb32>
    800002e4:	75ae                	ld	a1,232(sp)
    800002e6:	f52e                	sd	a1,168(sp)
    800002e8:	453d                	li	a0,15
    800002ea:	00b56b63          	bltu	a0,a1,80000300 <m_trap+0xa2>
    800002ee:	752a                	ld	a0,168(sp)
    800002f0:	050e                	slli	a0,a0,0x3
    800002f2:	0001d597          	auipc	a1,0x1d
    800002f6:	9a658593          	addi	a1,a1,-1626 # 8001cc98 <$d.1>
    800002fa:	952e                	add	a0,a0,a1
    800002fc:	6108                	ld	a0,0(a0)
    800002fe:	8502                	jr	a0
    80000300:	00001097          	auipc	ra,0x1
    80000304:	68a080e7          	jalr	1674(ra) # 8000198a <_ZN3sos4uart4Uart3get17hd64bacb7053f817fE>
    80000308:	75ca                	ld	a1,176(sp)
    8000030a:	e1a8                	sd	a0,64(a1)
    8000030c:	11b0                	addi	a2,sp,232
    8000030e:	40c5bc23          	sd	a2,1048(a1)
    80000312:	00018517          	auipc	a0,0x18
    80000316:	56e50513          	addi	a0,a0,1390 # 80018880 <_ZN4core3fmt3num3imp52_$LT$impl$u20$core..fmt..Display$u20$for$u20$u64$GT$3fmt17h79a3b66c3d7c6a6eE>
    8000031a:	42a5b023          	sd	a0,1056(a1)
    8000031e:	40c5b423          	sd	a2,1032(a1)
    80000322:	40a5b823          	sd	a0,1040(a1)
    80000326:	4085b603          	ld	a2,1032(a1)
    8000032a:	4105b503          	ld	a0,1040(a1)
    8000032e:	fdb0                	sd	a2,120(a1)
    80000330:	e1c8                	sd	a0,128(a1)
    80000332:	0001d517          	auipc	a0,0x1d
    80000336:	dde50593          	addi	a1,a0,-546 # 8001d110 <$d.34>
    8000033a:	7ff10513          	addi	a0,sp,2047
    8000033e:	0a150513          	addi	a0,a0,161
    80000342:	f12a                	sd	a0,160(sp)
    80000344:	4609                	li	a2,2
    80000346:	7ff10693          	addi	a3,sp,2047
    8000034a:	0d168693          	addi	a3,a3,209
    8000034e:	4705                	li	a4,1
    80000350:	0001b097          	auipc	ra,0x1b
    80000354:	504080e7          	jalr	1284(ra) # 8001b854 <_ZN4core3fmt9Arguments6new_v117h1284f79f6fe93eb5E>
    80000358:	758a                	ld	a1,160(sp)
    8000035a:	7ff10513          	addi	a0,sp,2047
    8000035e:	09950513          	addi	a0,a0,153
    80000362:	00002097          	auipc	ra,0x2
    80000366:	940080e7          	jalr	-1728(ra) # 80001ca2 <_ZN4core3fmt5Write9write_fmt17hcc37dab4e70c9deeE>
    8000036a:	b7bd                	j	800002d8 <m_trap+0x7a>
    8000036c:	0001d517          	auipc	a0,0x1d
    80000370:	9ac50513          	addi	a0,a0,-1620 # 8001cd18 <$d.3>
    80000374:	0001d597          	auipc	a1,0x1d
    80000378:	9d458613          	addi	a2,a1,-1580 # 8001cd48 <$d.5>
    8000037c:	02400593          	li	a1,36
    80000380:	0000b097          	auipc	ra,0xb
    80000384:	4ce080e7          	jalr	1230(ra) # 8000b84e <_ZN4core9panicking5panic17hc1e537fd0d21a68dE>
    80000388:	0001d517          	auipc	a0,0x1d
    8000038c:	9d850513          	addi	a0,a0,-1576 # 8001cd60 <$d.6>
    80000390:	0001d597          	auipc	a1,0x1d
    80000394:	a0058613          	addi	a2,a1,-1536 # 8001cd90 <$d.7>
    80000398:	02b00593          	li	a1,43
    8000039c:	0000b097          	auipc	ra,0xb
    800003a0:	4b2080e7          	jalr	1202(ra) # 8000b84e <_ZN4core9panicking5panic17hc1e537fd0d21a68dE>
    800003a4:	0001d517          	auipc	a0,0x1d
    800003a8:	a0450513          	addi	a0,a0,-1532 # 8001cda8 <$d.8>
    800003ac:	0001d597          	auipc	a1,0x1d
    800003b0:	a2458613          	addi	a2,a1,-1500 # 8001cdd0 <$d.9>
    800003b4:	02600593          	li	a1,38
    800003b8:	0000b097          	auipc	ra,0xb
    800003bc:	496080e7          	jalr	1174(ra) # 8000b84e <_ZN4core9panicking5panic17hc1e537fd0d21a68dE>
    800003c0:	0001d517          	auipc	a0,0x1d
    800003c4:	a2850513          	addi	a0,a0,-1496 # 8001cde8 <$d.10>
    800003c8:	0001d597          	auipc	a1,0x1d
    800003cc:	a5058613          	addi	a2,a1,-1456 # 8001ce18 <$d.11>
    800003d0:	02a00593          	li	a1,42
    800003d4:	0000b097          	auipc	ra,0xb
    800003d8:	47a080e7          	jalr	1146(ra) # 8000b84e <_ZN4core9panicking5panic17hc1e537fd0d21a68dE>
    800003dc:	0001d517          	auipc	a0,0x1d
    800003e0:	a5450513          	addi	a0,a0,-1452 # 8001ce30 <$d.12>
    800003e4:	0001d597          	auipc	a1,0x1d
    800003e8:	a7458613          	addi	a2,a1,-1420 # 8001ce58 <$d.13>
    800003ec:	02400593          	li	a1,36
    800003f0:	0000b097          	auipc	ra,0xb
    800003f4:	45e080e7          	jalr	1118(ra) # 8000b84e <_ZN4core9panicking5panic17hc1e537fd0d21a68dE>
    800003f8:	0001d517          	auipc	a0,0x1d
    800003fc:	a7850513          	addi	a0,a0,-1416 # 8001ce70 <$d.14>
    80000400:	0001d597          	auipc	a1,0x1d
    80000404:	aa058613          	addi	a2,a1,-1376 # 8001cea0 <$d.15>
    80000408:	02b00593          	li	a1,43
    8000040c:	0000b097          	auipc	ra,0xb
    80000410:	442080e7          	jalr	1090(ra) # 8000b84e <_ZN4core9panicking5panic17hc1e537fd0d21a68dE>
    80000414:	0001d517          	auipc	a0,0x1d
    80000418:	aa450513          	addi	a0,a0,-1372 # 8001ceb8 <$d.16>
    8000041c:	0001d597          	auipc	a1,0x1d
    80000420:	ac458613          	addi	a2,a1,-1340 # 8001cee0 <$d.17>
    80000424:	02500593          	li	a1,37
    80000428:	0000b097          	auipc	ra,0xb
    8000042c:	426080e7          	jalr	1062(ra) # 8000b84e <_ZN4core9panicking5panic17hc1e537fd0d21a68dE>
    80000430:	00001097          	auipc	ra,0x1
    80000434:	55a080e7          	jalr	1370(ra) # 8000198a <_ZN3sos4uart4Uart3get17hd64bacb7053f817fE>
    80000438:	73ca                	ld	t2,176(sp)
    8000043a:	f9aa                	sd	a0,240(sp)
    8000043c:	118c                	addi	a1,sp,224
    8000043e:	4ab3bc23          	sd	a1,1208(t2)
    80000442:	00018517          	auipc	a0,0x18
    80000446:	43e50513          	addi	a0,a0,1086 # 80018880 <_ZN4core3fmt3num3imp52_$LT$impl$u20$core..fmt..Display$u20$for$u20$u64$GT$3fmt17h79a3b66c3d7c6a6eE>
    8000044a:	4ca3b023          	sd	a0,1216(t2)
    8000044e:	4ab3b423          	sd	a1,1192(t2)
    80000452:	4aa3b823          	sd	a0,1200(t2)
    80000456:	4a83b683          	ld	a3,1192(t2)
    8000045a:	4b03b603          	ld	a2,1200(t2)
    8000045e:	098c                	addi	a1,sp,208
    80000460:	54b3bc23          	sd	a1,1368(t2)
    80000464:	00018517          	auipc	a0,0x18
    80000468:	baa50513          	addi	a0,a0,-1110 # 8001800e <_ZN4core3fmt3num53_$LT$impl$u20$core..fmt..LowerHex$u20$for$u20$i64$GT$3fmt17hba48ef49658a7bc3E>
    8000046c:	56a3b023          	sd	a0,1376(t2)
    80000470:	54b3b423          	sd	a1,1352(t2)
    80000474:	54a3b823          	sd	a0,1360(t2)
    80000478:	5483b583          	ld	a1,1352(t2)
    8000047c:	5503b503          	ld	a0,1360(t2)
    80000480:	f636                	sd	a3,296(sp)
    80000482:	fa32                	sd	a2,304(sp)
    80000484:	fe2e                	sd	a1,312(sp)
    80000486:	e2aa                	sd	a0,320(sp)
    80000488:	460d                	li	a2,3
    8000048a:	1ec10ba3          	sb	a2,503(sp)
    8000048e:	4809                	li	a6,2
    80000490:	ffc2                	sd	a6,504(sp)
    80000492:	21013423          	sd	a6,520(sp)
    80000496:	1f714883          	lbu	a7,503(sp)
    8000049a:	77fe                	ld	a5,504(sp)
    8000049c:	20013703          	ld	a4,512(sp)
    800004a0:	20813683          	ld	a3,520(sp)
    800004a4:	21013583          	ld	a1,528(sp)
    800004a8:	4501                	li	a0,0
    800004aa:	3aa3b823          	sd	a0,944(t2)
    800004ae:	02000293          	li	t0,32
    800004b2:	3a53ae23          	sw	t0,956(t2)
    800004b6:	3d1381a3          	sb	a7,963(t2)
    800004ba:	3ca3a223          	sw	a0,964(t2)
    800004be:	3cf3b423          	sd	a5,968(t2)
    800004c2:	3ce3b823          	sd	a4,976(t2)
    800004c6:	3cd3bc23          	sd	a3,984(t2)
    800004ca:	3eb3b023          	sd	a1,992(t2)
    800004ce:	efaa                	sd	a0,472(sp)
    800004d0:	1e512023          	sw	t0,480(sp)
    800004d4:	1f110423          	sb	a7,488(sp)
    800004d8:	1ea12223          	sw	a0,484(sp)
    800004dc:	ff3e                	sd	a5,440(sp)
    800004de:	e3ba                	sd	a4,448(sp)
    800004e0:	e7b6                	sd	a3,456(sp)
    800004e2:	ebae                	sd	a1,464(sp)
    800004e4:	24c10ba3          	sb	a2,599(sp)
    800004e8:	25013c23          	sd	a6,600(sp)
    800004ec:	47a1                	li	a5,8
    800004ee:	26f13823          	sd	a5,624(sp)
    800004f2:	26a13423          	sd	a0,616(sp)
    800004f6:	25714883          	lbu	a7,599(sp)
    800004fa:	25813703          	ld	a4,600(sp)
    800004fe:	26013683          	ld	a3,608(sp)
    80000502:	26813583          	ld	a1,616(sp)
    80000506:	27013503          	ld	a0,624(sp)
    8000050a:	4305                	li	t1,1
    8000050c:	3663bc23          	sd	t1,888(t2)
    80000510:	3853a223          	sw	t0,900(t2)
    80000514:	391385a3          	sb	a7,907(t2)
    80000518:	38f3a623          	sw	a5,908(t2)
    8000051c:	38e3b823          	sd	a4,912(t2)
    80000520:	38d3bc23          	sd	a3,920(t2)
    80000524:	3ab3b023          	sd	a1,928(t2)
    80000528:	3aa3b423          	sd	a0,936(t2)
    8000052c:	22613c23          	sd	t1,568(sp)
    80000530:	24512023          	sw	t0,576(sp)
    80000534:	25110423          	sb	a7,584(sp)
    80000538:	24f12223          	sw	a5,580(sp)
    8000053c:	20e13c23          	sd	a4,536(sp)
    80000540:	22d13023          	sd	a3,544(sp)
    80000544:	22b13423          	sd	a1,552(sp)
    80000548:	22a13823          	sd	a0,560(sp)
    8000054c:	753e                	ld	a0,488(sp)
    8000054e:	feaa                	sd	a0,376(sp)
    80000550:	751e                	ld	a0,480(sp)
    80000552:	faaa                	sd	a0,368(sp)
    80000554:	657e                	ld	a0,472(sp)
    80000556:	f6aa                	sd	a0,360(sp)
    80000558:	655e                	ld	a0,464(sp)
    8000055a:	f2aa                	sd	a0,352(sp)
    8000055c:	653e                	ld	a0,456(sp)
    8000055e:	eeaa                	sd	a0,344(sp)
    80000560:	651e                	ld	a0,448(sp)
    80000562:	eaaa                	sd	a0,336(sp)
    80000564:	757a                	ld	a0,440(sp)
    80000566:	e6aa                	sd	a0,328(sp)
    80000568:	24813503          	ld	a0,584(sp)
    8000056c:	fb2a                	sd	a0,432(sp)
    8000056e:	24013503          	ld	a0,576(sp)
    80000572:	f72a                	sd	a0,424(sp)
    80000574:	23813503          	ld	a0,568(sp)
    80000578:	f32a                	sd	a0,416(sp)
    8000057a:	23013503          	ld	a0,560(sp)
    8000057e:	ef2a                	sd	a0,408(sp)
    80000580:	22813503          	ld	a0,552(sp)
    80000584:	eb2a                	sd	a0,400(sp)
    80000586:	22013503          	ld	a0,544(sp)
    8000058a:	e72a                	sd	a0,392(sp)
    8000058c:	21813503          	ld	a0,536(sp)
    80000590:	e32a                	sd	a0,384(sp)
    80000592:	0001d517          	auipc	a0,0x1d
    80000596:	99650593          	addi	a1,a0,-1642 # 8001cf28 <$d.21>
    8000059a:	19a8                	addi	a0,sp,248
    8000059c:	e92a                	sd	a0,144(sp)
    8000059e:	1234                	addi	a3,sp,296
    800005a0:	02bc                	addi	a5,sp,328
    800005a2:	8742                	mv	a4,a6
    800005a4:	0001b097          	auipc	ra,0x1b
    800005a8:	28a080e7          	jalr	650(ra) # 8001b82e <_ZN4core3fmt9Arguments16new_v1_formatted17h027c4924b9e6da1bE>
    800005ac:	65ca                	ld	a1,144(sp)
    800005ae:	1988                	addi	a0,sp,240
    800005b0:	00001097          	auipc	ra,0x1
    800005b4:	6f2080e7          	jalr	1778(ra) # 80001ca2 <_ZN4core3fmt5Write9write_fmt17hcc37dab4e70c9deeE>
    800005b8:	65ce                	ld	a1,208(sp)
    800005ba:	00458513          	addi	a0,a1,4
    800005be:	ed2a                	sd	a0,152(sp)
    800005c0:	78b56a63          	bltu	a0,a1,80000d54 <m_trap+0xaf6>
    800005c4:	a761                	j	80000d4c <m_trap+0xaee>
    800005c6:	00001097          	auipc	ra,0x1
    800005ca:	3c4080e7          	jalr	964(ra) # 8000198a <_ZN3sos4uart4Uart3get17hd64bacb7053f817fE>
    800005ce:	73ca                	ld	t2,176(sp)
    800005d0:	26a13c23          	sd	a0,632(sp)
    800005d4:	118c                	addi	a1,sp,224
    800005d6:	48b3bc23          	sd	a1,1176(t2)
    800005da:	00018517          	auipc	a0,0x18
    800005de:	2a650513          	addi	a0,a0,678 # 80018880 <_ZN4core3fmt3num3imp52_$LT$impl$u20$core..fmt..Display$u20$for$u20$u64$GT$3fmt17h79a3b66c3d7c6a6eE>
    800005e2:	4aa3b023          	sd	a0,1184(t2)
    800005e6:	48b3b423          	sd	a1,1160(t2)
    800005ea:	48a3b823          	sd	a0,1168(t2)
    800005ee:	4883b683          	ld	a3,1160(t2)
    800005f2:	4903b603          	ld	a2,1168(t2)
    800005f6:	098c                	addi	a1,sp,208
    800005f8:	52b3bc23          	sd	a1,1336(t2)
    800005fc:	00018517          	auipc	a0,0x18
    80000600:	a1250513          	addi	a0,a0,-1518 # 8001800e <_ZN4core3fmt3num53_$LT$impl$u20$core..fmt..LowerHex$u20$for$u20$i64$GT$3fmt17hba48ef49658a7bc3E>
    80000604:	54a3b023          	sd	a0,1344(t2)
    80000608:	52b3b423          	sd	a1,1320(t2)
    8000060c:	52a3b823          	sd	a0,1328(t2)
    80000610:	5283b583          	ld	a1,1320(t2)
    80000614:	5303b503          	ld	a0,1328(t2)
    80000618:	2ad13823          	sd	a3,688(sp)
    8000061c:	2ac13c23          	sd	a2,696(sp)
    80000620:	2cb13023          	sd	a1,704(sp)
    80000624:	2ca13423          	sd	a0,712(sp)
    80000628:	460d                	li	a2,3
    8000062a:	36c10fa3          	sb	a2,895(sp)
    8000062e:	4809                	li	a6,2
    80000630:	39013023          	sd	a6,896(sp)
    80000634:	39013823          	sd	a6,912(sp)
    80000638:	37f14883          	lbu	a7,895(sp)
    8000063c:	38013783          	ld	a5,896(sp)
    80000640:	38813703          	ld	a4,904(sp)
    80000644:	39013683          	ld	a3,912(sp)
    80000648:	39813583          	ld	a1,920(sp)
    8000064c:	4501                	li	a0,0
    8000064e:	34a3b023          	sd	a0,832(t2)
    80000652:	02000293          	li	t0,32
    80000656:	3453a623          	sw	t0,844(t2)
    8000065a:	351389a3          	sb	a7,851(t2)
    8000065e:	34a3aa23          	sw	a0,852(t2)
    80000662:	34f3bc23          	sd	a5,856(t2)
    80000666:	36e3b023          	sd	a4,864(t2)
    8000066a:	36d3b423          	sd	a3,872(t2)
    8000066e:	36b3b823          	sd	a1,880(t2)
    80000672:	36a13023          	sd	a0,864(sp)
    80000676:	36512423          	sw	t0,872(sp)
    8000067a:	37110823          	sb	a7,880(sp)
    8000067e:	36a12623          	sw	a0,876(sp)
    80000682:	34f13023          	sd	a5,832(sp)
    80000686:	34e13423          	sd	a4,840(sp)
    8000068a:	34d13823          	sd	a3,848(sp)
    8000068e:	34b13c23          	sd	a1,856(sp)
    80000692:	3cc10fa3          	sb	a2,991(sp)
    80000696:	3f013023          	sd	a6,992(sp)
    8000069a:	47a1                	li	a5,8
    8000069c:	3ef13c23          	sd	a5,1016(sp)
    800006a0:	3ea13823          	sd	a0,1008(sp)
    800006a4:	3df14883          	lbu	a7,991(sp)
    800006a8:	3e013703          	ld	a4,992(sp)
    800006ac:	3e813683          	ld	a3,1000(sp)
    800006b0:	3f013583          	ld	a1,1008(sp)
    800006b4:	3f813503          	ld	a0,1016(sp)
    800006b8:	4305                	li	t1,1
    800006ba:	3063b423          	sd	t1,776(t2)
    800006be:	3053aa23          	sw	t0,788(t2)
    800006c2:	31138da3          	sb	a7,795(t2)
    800006c6:	30f3ae23          	sw	a5,796(t2)
    800006ca:	32e3b023          	sd	a4,800(t2)
    800006ce:	32d3b423          	sd	a3,808(t2)
    800006d2:	32b3b823          	sd	a1,816(t2)
    800006d6:	32a3bc23          	sd	a0,824(t2)
    800006da:	3c613023          	sd	t1,960(sp)
    800006de:	3c512423          	sw	t0,968(sp)
    800006e2:	3d110823          	sb	a7,976(sp)
    800006e6:	3cf12623          	sw	a5,972(sp)
    800006ea:	3ae13023          	sd	a4,928(sp)
    800006ee:	3ad13423          	sd	a3,936(sp)
    800006f2:	3ab13823          	sd	a1,944(sp)
    800006f6:	3aa13c23          	sd	a0,952(sp)
    800006fa:	37013503          	ld	a0,880(sp)
    800006fe:	30a13023          	sd	a0,768(sp)
    80000702:	36813503          	ld	a0,872(sp)
    80000706:	2ea13c23          	sd	a0,760(sp)
    8000070a:	36013503          	ld	a0,864(sp)
    8000070e:	2ea13823          	sd	a0,752(sp)
    80000712:	35813503          	ld	a0,856(sp)
    80000716:	2ea13423          	sd	a0,744(sp)
    8000071a:	35013503          	ld	a0,848(sp)
    8000071e:	2ea13023          	sd	a0,736(sp)
    80000722:	34813503          	ld	a0,840(sp)
    80000726:	2ca13c23          	sd	a0,728(sp)
    8000072a:	34013503          	ld	a0,832(sp)
    8000072e:	2ca13823          	sd	a0,720(sp)
    80000732:	3d013503          	ld	a0,976(sp)
    80000736:	32a13c23          	sd	a0,824(sp)
    8000073a:	3c813503          	ld	a0,968(sp)
    8000073e:	32a13823          	sd	a0,816(sp)
    80000742:	3c013503          	ld	a0,960(sp)
    80000746:	32a13423          	sd	a0,808(sp)
    8000074a:	3b813503          	ld	a0,952(sp)
    8000074e:	32a13023          	sd	a0,800(sp)
    80000752:	3b013503          	ld	a0,944(sp)
    80000756:	30a13c23          	sd	a0,792(sp)
    8000075a:	3a813503          	ld	a0,936(sp)
    8000075e:	30a13823          	sd	a0,784(sp)
    80000762:	3a013503          	ld	a0,928(sp)
    80000766:	30a13423          	sd	a0,776(sp)
    8000076a:	0001d517          	auipc	a0,0x1d
    8000076e:	84e50593          	addi	a1,a0,-1970 # 8001cfb8 <$d.25>
    80000772:	0508                	addi	a0,sp,640
    80000774:	e12a                	sd	a0,128(sp)
    80000776:	1d14                	addi	a3,sp,688
    80000778:	0d9c                	addi	a5,sp,720
    8000077a:	8742                	mv	a4,a6
    8000077c:	0001b097          	auipc	ra,0x1b
    80000780:	0b2080e7          	jalr	178(ra) # 8001b82e <_ZN4core3fmt9Arguments16new_v1_formatted17h027c4924b9e6da1bE>
    80000784:	658a                	ld	a1,128(sp)
    80000786:	1ca8                	addi	a0,sp,632
    80000788:	00001097          	auipc	ra,0x1
    8000078c:	51a080e7          	jalr	1306(ra) # 80001ca2 <_ZN4core3fmt5Write9write_fmt17hcc37dab4e70c9deeE>
    80000790:	65ce                	ld	a1,208(sp)
    80000792:	00458513          	addi	a0,a1,4
    80000796:	e52a                	sd	a0,136(sp)
    80000798:	5cb56f63          	bltu	a0,a1,80000d76 <m_trap+0xb18>
    8000079c:	abc9                	j	80000d6e <m_trap+0xb10>
    8000079e:	00001097          	auipc	ra,0x1
    800007a2:	1ec080e7          	jalr	492(ra) # 8000198a <_ZN3sos4uart4Uart3get17hd64bacb7053f817fE>
    800007a6:	73ca                	ld	t2,176(sp)
    800007a8:	40a13023          	sd	a0,1024(sp)
    800007ac:	118c                	addi	a1,sp,224
    800007ae:	46b3bc23          	sd	a1,1144(t2)
    800007b2:	00018517          	auipc	a0,0x18
    800007b6:	0ce50513          	addi	a0,a0,206 # 80018880 <_ZN4core3fmt3num3imp52_$LT$impl$u20$core..fmt..Display$u20$for$u20$u64$GT$3fmt17h79a3b66c3d7c6a6eE>
    800007ba:	48a3b023          	sd	a0,1152(t2)
    800007be:	46b3b423          	sd	a1,1128(t2)
    800007c2:	46a3b823          	sd	a0,1136(t2)
    800007c6:	4683b683          	ld	a3,1128(t2)
    800007ca:	4703b603          	ld	a2,1136(t2)
    800007ce:	09ac                	addi	a1,sp,216
    800007d0:	50b3bc23          	sd	a1,1304(t2)
    800007d4:	00018517          	auipc	a0,0x18
    800007d8:	83a50513          	addi	a0,a0,-1990 # 8001800e <_ZN4core3fmt3num53_$LT$impl$u20$core..fmt..LowerHex$u20$for$u20$i64$GT$3fmt17hba48ef49658a7bc3E>
    800007dc:	52a3b023          	sd	a0,1312(t2)
    800007e0:	50b3b423          	sd	a1,1288(t2)
    800007e4:	50a3b823          	sd	a0,1296(t2)
    800007e8:	5083b583          	ld	a1,1288(t2)
    800007ec:	5103b503          	ld	a0,1296(t2)
    800007f0:	42d13c23          	sd	a3,1080(sp)
    800007f4:	44c13023          	sd	a2,1088(sp)
    800007f8:	44b13423          	sd	a1,1096(sp)
    800007fc:	44a13823          	sd	a0,1104(sp)
    80000800:	460d                	li	a2,3
    80000802:	50c103a3          	sb	a2,1287(sp)
    80000806:	4809                	li	a6,2
    80000808:	51013423          	sd	a6,1288(sp)
    8000080c:	51013c23          	sd	a6,1304(sp)
    80000810:	50714883          	lbu	a7,1287(sp)
    80000814:	50813783          	ld	a5,1288(sp)
    80000818:	51013703          	ld	a4,1296(sp)
    8000081c:	51813683          	ld	a3,1304(sp)
    80000820:	52013583          	ld	a1,1312(sp)
    80000824:	4501                	li	a0,0
    80000826:	2ca3b823          	sd	a0,720(t2)
    8000082a:	02000293          	li	t0,32
    8000082e:	2c53ae23          	sw	t0,732(t2)
    80000832:	2f1381a3          	sb	a7,739(t2)
    80000836:	2ea3a223          	sw	a0,740(t2)
    8000083a:	2ef3b423          	sd	a5,744(t2)
    8000083e:	2ee3b823          	sd	a4,752(t2)
    80000842:	2ed3bc23          	sd	a3,760(t2)
    80000846:	30b3b023          	sd	a1,768(t2)
    8000084a:	4ea13423          	sd	a0,1256(sp)
    8000084e:	4e512823          	sw	t0,1264(sp)
    80000852:	4f110c23          	sb	a7,1272(sp)
    80000856:	4ea12a23          	sw	a0,1268(sp)
    8000085a:	4cf13423          	sd	a5,1224(sp)
    8000085e:	4ce13823          	sd	a4,1232(sp)
    80000862:	4cd13c23          	sd	a3,1240(sp)
    80000866:	4eb13023          	sd	a1,1248(sp)
    8000086a:	56c103a3          	sb	a2,1383(sp)
    8000086e:	57013423          	sd	a6,1384(sp)
    80000872:	47a1                	li	a5,8
    80000874:	58f13023          	sd	a5,1408(sp)
    80000878:	56a13c23          	sd	a0,1400(sp)
    8000087c:	56714883          	lbu	a7,1383(sp)
    80000880:	56813703          	ld	a4,1384(sp)
    80000884:	57013683          	ld	a3,1392(sp)
    80000888:	57813583          	ld	a1,1400(sp)
    8000088c:	58013503          	ld	a0,1408(sp)
    80000890:	4305                	li	t1,1
    80000892:	2863bc23          	sd	t1,664(t2)
    80000896:	2a53a223          	sw	t0,676(t2)
    8000089a:	2b1385a3          	sb	a7,683(t2)
    8000089e:	2af3a623          	sw	a5,684(t2)
    800008a2:	2ae3b823          	sd	a4,688(t2)
    800008a6:	2ad3bc23          	sd	a3,696(t2)
    800008aa:	2cb3b023          	sd	a1,704(t2)
    800008ae:	2ca3b423          	sd	a0,712(t2)
    800008b2:	54613423          	sd	t1,1352(sp)
    800008b6:	54512823          	sw	t0,1360(sp)
    800008ba:	55110c23          	sb	a7,1368(sp)
    800008be:	54f12a23          	sw	a5,1364(sp)
    800008c2:	52e13423          	sd	a4,1320(sp)
    800008c6:	52d13823          	sd	a3,1328(sp)
    800008ca:	52b13c23          	sd	a1,1336(sp)
    800008ce:	54a13023          	sd	a0,1344(sp)
    800008d2:	4f813503          	ld	a0,1272(sp)
    800008d6:	48a13423          	sd	a0,1160(sp)
    800008da:	4f013503          	ld	a0,1264(sp)
    800008de:	48a13023          	sd	a0,1152(sp)
    800008e2:	4e813503          	ld	a0,1256(sp)
    800008e6:	46a13c23          	sd	a0,1144(sp)
    800008ea:	4e013503          	ld	a0,1248(sp)
    800008ee:	46a13823          	sd	a0,1136(sp)
    800008f2:	4d813503          	ld	a0,1240(sp)
    800008f6:	46a13423          	sd	a0,1128(sp)
    800008fa:	4d013503          	ld	a0,1232(sp)
    800008fe:	46a13023          	sd	a0,1120(sp)
    80000902:	4c813503          	ld	a0,1224(sp)
    80000906:	44a13c23          	sd	a0,1112(sp)
    8000090a:	55813503          	ld	a0,1368(sp)
    8000090e:	4ca13023          	sd	a0,1216(sp)
    80000912:	55013503          	ld	a0,1360(sp)
    80000916:	4aa13c23          	sd	a0,1208(sp)
    8000091a:	54813503          	ld	a0,1352(sp)
    8000091e:	4aa13823          	sd	a0,1200(sp)
    80000922:	54013503          	ld	a0,1344(sp)
    80000926:	4aa13423          	sd	a0,1192(sp)
    8000092a:	53813503          	ld	a0,1336(sp)
    8000092e:	4aa13023          	sd	a0,1184(sp)
    80000932:	53013503          	ld	a0,1328(sp)
    80000936:	48a13c23          	sd	a0,1176(sp)
    8000093a:	52813503          	ld	a0,1320(sp)
    8000093e:	48a13823          	sd	a0,1168(sp)
    80000942:	0001c517          	auipc	a0,0x1c
    80000946:	6e650593          	addi	a1,a0,1766 # 8001d028 <$d.28>
    8000094a:	40810513          	addi	a0,sp,1032
    8000094e:	fcaa                	sd	a0,120(sp)
    80000950:	43810693          	addi	a3,sp,1080
    80000954:	45810793          	addi	a5,sp,1112
    80000958:	8742                	mv	a4,a6
    8000095a:	0001b097          	auipc	ra,0x1b
    8000095e:	ed4080e7          	jalr	-300(ra) # 8001b82e <_ZN4core3fmt9Arguments16new_v1_formatted17h027c4924b9e6da1bE>
    80000962:	75e6                	ld	a1,120(sp)
    80000964:	40010513          	addi	a0,sp,1024
    80000968:	00001097          	auipc	ra,0x1
    8000096c:	33a080e7          	jalr	826(ra) # 80001ca2 <_ZN4core3fmt5Write9write_fmt17hcc37dab4e70c9deeE>
    80000970:	b2a5                	j	800002d8 <m_trap+0x7a>
    80000972:	00001097          	auipc	ra,0x1
    80000976:	018080e7          	jalr	24(ra) # 8000198a <_ZN3sos4uart4Uart3get17hd64bacb7053f817fE>
    8000097a:	73ca                	ld	t2,176(sp)
    8000097c:	58a13423          	sd	a0,1416(sp)
    80000980:	118c                	addi	a1,sp,224
    80000982:	44b3bc23          	sd	a1,1112(t2)
    80000986:	00018517          	auipc	a0,0x18
    8000098a:	efa50513          	addi	a0,a0,-262 # 80018880 <_ZN4core3fmt3num3imp52_$LT$impl$u20$core..fmt..Display$u20$for$u20$u64$GT$3fmt17h79a3b66c3d7c6a6eE>
    8000098e:	46a3b023          	sd	a0,1120(t2)
    80000992:	44b3b423          	sd	a1,1096(t2)
    80000996:	44a3b823          	sd	a0,1104(t2)
    8000099a:	4483b683          	ld	a3,1096(t2)
    8000099e:	4503b603          	ld	a2,1104(t2)
    800009a2:	09ac                	addi	a1,sp,216
    800009a4:	4eb3bc23          	sd	a1,1272(t2)
    800009a8:	00017517          	auipc	a0,0x17
    800009ac:	66650513          	addi	a0,a0,1638 # 8001800e <_ZN4core3fmt3num53_$LT$impl$u20$core..fmt..LowerHex$u20$for$u20$i64$GT$3fmt17hba48ef49658a7bc3E>
    800009b0:	50a3b023          	sd	a0,1280(t2)
    800009b4:	4eb3b423          	sd	a1,1256(t2)
    800009b8:	4ea3b823          	sd	a0,1264(t2)
    800009bc:	4e83b583          	ld	a1,1256(t2)
    800009c0:	4f03b503          	ld	a0,1264(t2)
    800009c4:	5cd13023          	sd	a3,1472(sp)
    800009c8:	5cc13423          	sd	a2,1480(sp)
    800009cc:	5cb13823          	sd	a1,1488(sp)
    800009d0:	5ca13c23          	sd	a0,1496(sp)
    800009d4:	460d                	li	a2,3
    800009d6:	68c107a3          	sb	a2,1679(sp)
    800009da:	4809                	li	a6,2
    800009dc:	69013823          	sd	a6,1680(sp)
    800009e0:	6b013023          	sd	a6,1696(sp)
    800009e4:	68f14883          	lbu	a7,1679(sp)
    800009e8:	69013783          	ld	a5,1680(sp)
    800009ec:	69813703          	ld	a4,1688(sp)
    800009f0:	6a013683          	ld	a3,1696(sp)
    800009f4:	6a813583          	ld	a1,1704(sp)
    800009f8:	4501                	li	a0,0
    800009fa:	26a3b023          	sd	a0,608(t2)
    800009fe:	02000293          	li	t0,32
    80000a02:	2653a623          	sw	t0,620(t2)
    80000a06:	271389a3          	sb	a7,627(t2)
    80000a0a:	26a3aa23          	sw	a0,628(t2)
    80000a0e:	26f3bc23          	sd	a5,632(t2)
    80000a12:	28e3b023          	sd	a4,640(t2)
    80000a16:	28d3b423          	sd	a3,648(t2)
    80000a1a:	28b3b823          	sd	a1,656(t2)
    80000a1e:	66a13823          	sd	a0,1648(sp)
    80000a22:	66512c23          	sw	t0,1656(sp)
    80000a26:	69110023          	sb	a7,1664(sp)
    80000a2a:	66a12e23          	sw	a0,1660(sp)
    80000a2e:	64f13823          	sd	a5,1616(sp)
    80000a32:	64e13c23          	sd	a4,1624(sp)
    80000a36:	66d13023          	sd	a3,1632(sp)
    80000a3a:	66b13423          	sd	a1,1640(sp)
    80000a3e:	6ec107a3          	sb	a2,1775(sp)
    80000a42:	6f013823          	sd	a6,1776(sp)
    80000a46:	47a1                	li	a5,8
    80000a48:	70f13423          	sd	a5,1800(sp)
    80000a4c:	70a13023          	sd	a0,1792(sp)
    80000a50:	6ef14883          	lbu	a7,1775(sp)
    80000a54:	6f013703          	ld	a4,1776(sp)
    80000a58:	6f813683          	ld	a3,1784(sp)
    80000a5c:	70013583          	ld	a1,1792(sp)
    80000a60:	70813503          	ld	a0,1800(sp)
    80000a64:	4305                	li	t1,1
    80000a66:	2263b423          	sd	t1,552(t2)
    80000a6a:	2253aa23          	sw	t0,564(t2)
    80000a6e:	23138da3          	sb	a7,571(t2)
    80000a72:	22f3ae23          	sw	a5,572(t2)
    80000a76:	24e3b023          	sd	a4,576(t2)
    80000a7a:	24d3b423          	sd	a3,584(t2)
    80000a7e:	24b3b823          	sd	a1,592(t2)
    80000a82:	24a3bc23          	sd	a0,600(t2)
    80000a86:	6c613823          	sd	t1,1744(sp)
    80000a8a:	6c512c23          	sw	t0,1752(sp)
    80000a8e:	6f110023          	sb	a7,1760(sp)
    80000a92:	6cf12e23          	sw	a5,1756(sp)
    80000a96:	6ae13823          	sd	a4,1712(sp)
    80000a9a:	6ad13c23          	sd	a3,1720(sp)
    80000a9e:	6cb13023          	sd	a1,1728(sp)
    80000aa2:	6ca13423          	sd	a0,1736(sp)
    80000aa6:	68013503          	ld	a0,1664(sp)
    80000aaa:	60a13823          	sd	a0,1552(sp)
    80000aae:	67813503          	ld	a0,1656(sp)
    80000ab2:	60a13423          	sd	a0,1544(sp)
    80000ab6:	67013503          	ld	a0,1648(sp)
    80000aba:	60a13023          	sd	a0,1536(sp)
    80000abe:	66813503          	ld	a0,1640(sp)
    80000ac2:	5ea13c23          	sd	a0,1528(sp)
    80000ac6:	66013503          	ld	a0,1632(sp)
    80000aca:	5ea13823          	sd	a0,1520(sp)
    80000ace:	65813503          	ld	a0,1624(sp)
    80000ad2:	5ea13423          	sd	a0,1512(sp)
    80000ad6:	65013503          	ld	a0,1616(sp)
    80000ada:	5ea13023          	sd	a0,1504(sp)
    80000ade:	6e013503          	ld	a0,1760(sp)
    80000ae2:	64a13423          	sd	a0,1608(sp)
    80000ae6:	6d813503          	ld	a0,1752(sp)
    80000aea:	64a13023          	sd	a0,1600(sp)
    80000aee:	6d013503          	ld	a0,1744(sp)
    80000af2:	62a13c23          	sd	a0,1592(sp)
    80000af6:	6c813503          	ld	a0,1736(sp)
    80000afa:	62a13823          	sd	a0,1584(sp)
    80000afe:	6c013503          	ld	a0,1728(sp)
    80000b02:	62a13423          	sd	a0,1576(sp)
    80000b06:	6b813503          	ld	a0,1720(sp)
    80000b0a:	62a13023          	sd	a0,1568(sp)
    80000b0e:	6b013503          	ld	a0,1712(sp)
    80000b12:	60a13c23          	sd	a0,1560(sp)
    80000b16:	0001c517          	auipc	a0,0x1c
    80000b1a:	56250593          	addi	a1,a0,1378 # 8001d078 <$d.30>
    80000b1e:	59010513          	addi	a0,sp,1424
    80000b22:	f8aa                	sd	a0,112(sp)
    80000b24:	5c010693          	addi	a3,sp,1472
    80000b28:	5e010793          	addi	a5,sp,1504
    80000b2c:	8742                	mv	a4,a6
    80000b2e:	0001b097          	auipc	ra,0x1b
    80000b32:	d00080e7          	jalr	-768(ra) # 8001b82e <_ZN4core3fmt9Arguments16new_v1_formatted17h027c4924b9e6da1bE>
    80000b36:	75c6                	ld	a1,112(sp)
    80000b38:	58810513          	addi	a0,sp,1416
    80000b3c:	00001097          	auipc	ra,0x1
    80000b40:	166080e7          	jalr	358(ra) # 80001ca2 <_ZN4core3fmt5Write9write_fmt17hcc37dab4e70c9deeE>
    80000b44:	f94ff06f          	j	800002d8 <m_trap+0x7a>
    80000b48:	00001097          	auipc	ra,0x1
    80000b4c:	e42080e7          	jalr	-446(ra) # 8000198a <_ZN3sos4uart4Uart3get17hd64bacb7053f817fE>
    80000b50:	85aa                	mv	a1,a0
    80000b52:	754a                	ld	a0,176(sp)
    80000b54:	70b13823          	sd	a1,1808(sp)
    80000b58:	1190                	addi	a2,sp,224
    80000b5a:	42c53c23          	sd	a2,1080(a0)
    80000b5e:	00018597          	auipc	a1,0x18
    80000b62:	d2258593          	addi	a1,a1,-734 # 80018880 <_ZN4core3fmt3num3imp52_$LT$impl$u20$core..fmt..Display$u20$for$u20$u64$GT$3fmt17h79a3b66c3d7c6a6eE>
    80000b66:	44b53023          	sd	a1,1088(a0)
    80000b6a:	42c53423          	sd	a2,1064(a0)
    80000b6e:	42b53823          	sd	a1,1072(a0)
    80000b72:	42853703          	ld	a4,1064(a0)
    80000b76:	43053683          	ld	a3,1072(a0)
    80000b7a:	09b0                	addi	a2,sp,216
    80000b7c:	4cc53c23          	sd	a2,1240(a0)
    80000b80:	00017597          	auipc	a1,0x17
    80000b84:	48e58593          	addi	a1,a1,1166 # 8001800e <_ZN4core3fmt3num53_$LT$impl$u20$core..fmt..LowerHex$u20$for$u20$i64$GT$3fmt17hba48ef49658a7bc3E>
    80000b88:	4eb53023          	sd	a1,1248(a0)
    80000b8c:	4cc53423          	sd	a2,1224(a0)
    80000b90:	4cb53823          	sd	a1,1232(a0)
    80000b94:	4c853603          	ld	a2,1224(a0)
    80000b98:	4d053583          	ld	a1,1232(a0)
    80000b9c:	74e13423          	sd	a4,1864(sp)
    80000ba0:	74d13823          	sd	a3,1872(sp)
    80000ba4:	74c13c23          	sd	a2,1880(sp)
    80000ba8:	76b13023          	sd	a1,1888(sp)
    80000bac:	460d                	li	a2,3
    80000bae:	6585                	lui	a1,0x1
    80000bb0:	958a                	add	a1,a1,sp
    80000bb2:	80c58ba3          	sb	a2,-2025(a1) # 817 <$d.17+0x17>
    80000bb6:	4809                	li	a6,2
    80000bb8:	6585                	lui	a1,0x1
    80000bba:	958a                	add	a1,a1,sp
    80000bbc:	8105bc23          	sd	a6,-2024(a1) # 818 <$d.17+0x18>
    80000bc0:	6585                	lui	a1,0x1
    80000bc2:	958a                	add	a1,a1,sp
    80000bc4:	8305b423          	sd	a6,-2008(a1) # 828 <$d.7+0x1>
    80000bc8:	6585                	lui	a1,0x1
    80000bca:	958a                	add	a1,a1,sp
    80000bcc:	8175c283          	lbu	t0,-2025(a1) # 817 <$d.17+0x17>
    80000bd0:	6585                	lui	a1,0x1
    80000bd2:	958a                	add	a1,a1,sp
    80000bd4:	8185b883          	ld	a7,-2024(a1) # 818 <$d.17+0x18>
    80000bd8:	6585                	lui	a1,0x1
    80000bda:	958a                	add	a1,a1,sp
    80000bdc:	8205b783          	ld	a5,-2016(a1) # 820 <$d.16>
    80000be0:	6585                	lui	a1,0x1
    80000be2:	958a                	add	a1,a1,sp
    80000be4:	8285b703          	ld	a4,-2008(a1) # 828 <$d.7+0x1>
    80000be8:	6585                	lui	a1,0x1
    80000bea:	958a                	add	a1,a1,sp
    80000bec:	8305b683          	ld	a3,-2000(a1) # 830 <$d.7+0x9>
    80000bf0:	4581                	li	a1,0
    80000bf2:	1eb53823          	sd	a1,496(a0)
    80000bf6:	02000313          	li	t1,32
    80000bfa:	1e652e23          	sw	t1,508(a0)
    80000bfe:	205501a3          	sb	t0,515(a0)
    80000c02:	20b52223          	sw	a1,516(a0)
    80000c06:	21153423          	sd	a7,520(a0)
    80000c0a:	20f53823          	sd	a5,528(a0)
    80000c0e:	20e53c23          	sd	a4,536(a0)
    80000c12:	22d53023          	sd	a3,544(a0)
    80000c16:	7eb13c23          	sd	a1,2040(sp)
    80000c1a:	6385                	lui	t2,0x1
    80000c1c:	938a                	add	t2,t2,sp
    80000c1e:	8063a023          	sw	t1,-2048(t2) # 800 <$d.17>
    80000c22:	6385                	lui	t2,0x1
    80000c24:	938a                	add	t2,t2,sp
    80000c26:	80538423          	sb	t0,-2040(t2) # 808 <$d.17+0x8>
    80000c2a:	6285                	lui	t0,0x1
    80000c2c:	928a                	add	t0,t0,sp
    80000c2e:	80b2a223          	sw	a1,-2044(t0) # 804 <$d.17+0x4>
    80000c32:	7d113c23          	sd	a7,2008(sp)
    80000c36:	7ef13023          	sd	a5,2016(sp)
    80000c3a:	7ee13423          	sd	a4,2024(sp)
    80000c3e:	7ed13823          	sd	a3,2032(sp)
    80000c42:	00c50fa3          	sb	a2,31(a0)
    80000c46:	03053023          	sd	a6,32(a0)
    80000c4a:	48a1                	li	a7,8
    80000c4c:	03153c23          	sd	a7,56(a0)
    80000c50:	f90c                	sd	a1,48(a0)
    80000c52:	01f54283          	lbu	t0,31(a0)
    80000c56:	711c                	ld	a5,32(a0)
    80000c58:	7518                	ld	a4,40(a0)
    80000c5a:	7914                	ld	a3,48(a0)
    80000c5c:	7d0c                	ld	a1,56(a0)
    80000c5e:	4385                	li	t2,1
    80000c60:	1a753c23          	sd	t2,440(a0)
    80000c64:	1c652223          	sw	t1,452(a0)
    80000c68:	1c5505a3          	sb	t0,459(a0)
    80000c6c:	1d152623          	sw	a7,460(a0)
    80000c70:	1cf53823          	sd	a5,464(a0)
    80000c74:	1ce53c23          	sd	a4,472(a0)
    80000c78:	1ed53023          	sd	a3,480(a0)
    80000c7c:	1eb53423          	sd	a1,488(a0)
    80000c80:	00753023          	sd	t2,0(a0)
    80000c84:	00652423          	sw	t1,8(a0)
    80000c88:	00550823          	sb	t0,16(a0)
    80000c8c:	01152623          	sw	a7,12(a0)
    80000c90:	6885                	lui	a7,0x1
    80000c92:	988a                	add	a7,a7,sp
    80000c94:	82f8bc23          	sd	a5,-1992(a7) # 838 <$d.7+0x11>
    80000c98:	fee53423          	sd	a4,-24(a0)
    80000c9c:	fed53823          	sd	a3,-16(a0)
    80000ca0:	feb53c23          	sd	a1,-8(a0)
    80000ca4:	6585                	lui	a1,0x1
    80000ca6:	958a                	add	a1,a1,sp
    80000ca8:	8085b583          	ld	a1,-2040(a1) # 808 <$d.17+0x8>
    80000cac:	78b13c23          	sd	a1,1944(sp)
    80000cb0:	6585                	lui	a1,0x1
    80000cb2:	958a                	add	a1,a1,sp
    80000cb4:	8005b583          	ld	a1,-2048(a1) # 800 <$d.17>
    80000cb8:	78b13823          	sd	a1,1936(sp)
    80000cbc:	7f813583          	ld	a1,2040(sp)
    80000cc0:	78b13423          	sd	a1,1928(sp)
    80000cc4:	7f013583          	ld	a1,2032(sp)
    80000cc8:	78b13023          	sd	a1,1920(sp)
    80000ccc:	7e813583          	ld	a1,2024(sp)
    80000cd0:	76b13c23          	sd	a1,1912(sp)
    80000cd4:	7e013583          	ld	a1,2016(sp)
    80000cd8:	76b13823          	sd	a1,1904(sp)
    80000cdc:	7d813583          	ld	a1,2008(sp)
    80000ce0:	76b13423          	sd	a1,1896(sp)
    80000ce4:	690c                	ld	a1,16(a0)
    80000ce6:	7cb13823          	sd	a1,2000(sp)
    80000cea:	650c                	ld	a1,8(a0)
    80000cec:	7cb13423          	sd	a1,1992(sp)
    80000cf0:	610c                	ld	a1,0(a0)
    80000cf2:	7cb13023          	sd	a1,1984(sp)
    80000cf6:	ff853583          	ld	a1,-8(a0)
    80000cfa:	7ab13c23          	sd	a1,1976(sp)
    80000cfe:	ff053583          	ld	a1,-16(a0)
    80000d02:	7ab13823          	sd	a1,1968(sp)
    80000d06:	fe853503          	ld	a0,-24(a0)
    80000d0a:	7aa13423          	sd	a0,1960(sp)
    80000d0e:	6505                	lui	a0,0x1
    80000d10:	950a                	add	a0,a0,sp
    80000d12:	83853503          	ld	a0,-1992(a0) # 838 <$d.7+0x11>
    80000d16:	7aa13023          	sd	a0,1952(sp)
    80000d1a:	0001c517          	auipc	a0,0x1c
    80000d1e:	3ae50593          	addi	a1,a0,942 # 8001d0c8 <$d.32>
    80000d22:	71810513          	addi	a0,sp,1816
    80000d26:	f4aa                	sd	a0,104(sp)
    80000d28:	74810693          	addi	a3,sp,1864
    80000d2c:	76810793          	addi	a5,sp,1896
    80000d30:	8742                	mv	a4,a6
    80000d32:	0001b097          	auipc	ra,0x1b
    80000d36:	afc080e7          	jalr	-1284(ra) # 8001b82e <_ZN4core3fmt9Arguments16new_v1_formatted17h027c4924b9e6da1bE>
    80000d3a:	75a6                	ld	a1,104(sp)
    80000d3c:	71010513          	addi	a0,sp,1808
    80000d40:	00001097          	auipc	ra,0x1
    80000d44:	f62080e7          	jalr	-158(ra) # 80001ca2 <_ZN4core3fmt5Write9write_fmt17hcc37dab4e70c9deeE>
    80000d48:	d90ff06f          	j	800002d8 <m_trap+0x7a>
    80000d4c:	656a                	ld	a0,152(sp)
    80000d4e:	e9aa                	sd	a0,208(sp)
    80000d50:	d88ff06f          	j	800002d8 <m_trap+0x7a>
    80000d54:	0001c517          	auipc	a0,0x1c
    80000d58:	21c50513          	addi	a0,a0,540 # 8001cf70 <str.0>
    80000d5c:	0001c597          	auipc	a1,0x1c
    80000d60:	1fc58613          	addi	a2,a1,508 # 8001cf58 <$d.22>
    80000d64:	45f1                	li	a1,28
    80000d66:	0000b097          	auipc	ra,0xb
    80000d6a:	ae8080e7          	jalr	-1304(ra) # 8000b84e <_ZN4core9panicking5panic17hc1e537fd0d21a68dE>
    80000d6e:	652a                	ld	a0,136(sp)
    80000d70:	e9aa                	sd	a0,208(sp)
    80000d72:	d66ff06f          	j	800002d8 <m_trap+0x7a>
    80000d76:	0001c517          	auipc	a0,0x1c
    80000d7a:	1fa50513          	addi	a0,a0,506 # 8001cf70 <str.0>
    80000d7e:	0001c597          	auipc	a1,0x1c
    80000d82:	26a58613          	addi	a2,a1,618 # 8001cfe8 <$d.26>
    80000d86:	45f1                	li	a1,28
    80000d88:	0000b097          	auipc	ra,0xb
    80000d8c:	ac6080e7          	jalr	-1338(ra) # 8000b84e <_ZN4core9panicking5panic17hc1e537fd0d21a68dE>
    80000d90:	654e                	ld	a0,208(sp)
    80000d92:	60010113          	addi	sp,sp,1536
    80000d96:	7e813083          	ld	ra,2024(sp)
    80000d9a:	7f010113          	addi	sp,sp,2032
    80000d9e:	8082                	ret
    80000da0:	752e                	ld	a0,232(sp)
    80000da2:	f0aa                	sd	a0,96(sp)
    80000da4:	459d                	li	a1,7
    80000da6:	08b50163          	beq	a0,a1,80000e28 <m_trap+0xbca>
    80000daa:	a009                	j	80000dac <m_trap+0xb4e>
    80000dac:	7506                	ld	a0,96(sp)
    80000dae:	45ad                	li	a1,11
    80000db0:	0ab50b63          	beq	a0,a1,80000e66 <m_trap+0xc08>
    80000db4:	a009                	j	80000db6 <m_trap+0xb58>
    80000db6:	00001097          	auipc	ra,0x1
    80000dba:	bd4080e7          	jalr	-1068(ra) # 8000198a <_ZN3sos4uart4Uart3get17hd64bacb7053f817fE>
    80000dbe:	75ca                	ld	a1,176(sp)
    80000dc0:	12a5bc23          	sd	a0,312(a1)
    80000dc4:	11b0                	addi	a2,sp,232
    80000dc6:	3ec5bc23          	sd	a2,1016(a1)
    80000dca:	00018517          	auipc	a0,0x18
    80000dce:	ab650513          	addi	a0,a0,-1354 # 80018880 <_ZN4core3fmt3num3imp52_$LT$impl$u20$core..fmt..Display$u20$for$u20$u64$GT$3fmt17h79a3b66c3d7c6a6eE>
    80000dd2:	40a5b023          	sd	a0,1024(a1)
    80000dd6:	3ec5b423          	sd	a2,1000(a1)
    80000dda:	3ea5b823          	sd	a0,1008(a1)
    80000dde:	3e85b603          	ld	a2,1000(a1)
    80000de2:	3f05b503          	ld	a0,1008(a1)
    80000de6:	16c5b823          	sd	a2,368(a1)
    80000dea:	16a5bc23          	sd	a0,376(a1)
    80000dee:	0001c517          	auipc	a0,0x1c
    80000df2:	43250593          	addi	a1,a0,1074 # 8001d220 <$d.45>
    80000df6:	7ff10513          	addi	a0,sp,2047
    80000dfa:	19950513          	addi	a0,a0,409
    80000dfe:	ecaa                	sd	a0,88(sp)
    80000e00:	4609                	li	a2,2
    80000e02:	7ff10693          	addi	a3,sp,2047
    80000e06:	1c968693          	addi	a3,a3,457
    80000e0a:	4705                	li	a4,1
    80000e0c:	0001b097          	auipc	ra,0x1b
    80000e10:	a48080e7          	jalr	-1464(ra) # 8001b854 <_ZN4core3fmt9Arguments6new_v117h1284f79f6fe93eb5E>
    80000e14:	65e6                	ld	a1,88(sp)
    80000e16:	7ff10513          	addi	a0,sp,2047
    80000e1a:	19150513          	addi	a0,a0,401
    80000e1e:	00001097          	auipc	ra,0x1
    80000e22:	e84080e7          	jalr	-380(ra) # 80001ca2 <_ZN4core3fmt5Write9write_fmt17hcc37dab4e70c9deeE>
    80000e26:	b7ad                	j	80000d90 <m_trap+0xb32>
    80000e28:	75ca                	ld	a1,176(sp)
    80000e2a:	02004537          	lui	a0,0x2004
    80000e2e:	e0aa                	sd	a0,64(sp)
    80000e30:	18a5bc23          	sd	a0,408(a1)
    80000e34:	56a5b423          	sd	a0,1384(a1)
    80000e38:	56a5b823          	sd	a0,1392(a1)
    80000e3c:	45a1                	li	a1,8
    80000e3e:	00001097          	auipc	ra,0x1
    80000e42:	cd2080e7          	jalr	-814(ra) # 80001b10 <_ZN4core3ptr13read_volatile18precondition_check17h089078e0ad942a78E>
    80000e46:	6586                	ld	a1,64(sp)
    80000e48:	754a                	ld	a0,176(sp)
    80000e4a:	618c                	ld	a1,0(a1)
    80000e4c:	56b53c23          	sd	a1,1400(a0) # 2004578 <$d.6+0x1fd8468>
    80000e50:	57853503          	ld	a0,1400(a0)
    80000e54:	e4aa                	sd	a0,72(sp)
    80000e56:	00989537          	lui	a0,0x989
    80000e5a:	6805051b          	addiw	a0,a0,1664 # 989680 <$d.6+0x95d570>
    80000e5e:	e8aa                	sd	a0,80(sp)
    80000e60:	4501                	li	a0,0
    80000e62:	e90d                	bnez	a0,80000e94 <m_trap+0xc36>
    80000e64:	a00d                	j	80000e86 <m_trap+0xc28>
    80000e66:	00000097          	auipc	ra,0x0
    80000e6a:	380080e7          	jalr	896(ra) # 800011e6 <_ZN3sos4plic14next_interrupt17h23ef129d77d133b5E>
    80000e6e:	862a                	mv	a2,a0
    80000e70:	754a                	ld	a0,176(sp)
    80000e72:	08c52423          	sw	a2,136(a0)
    80000e76:	08b52623          	sw	a1,140(a0)
    80000e7a:	08852503          	lw	a0,136(a0)
    80000e7e:	4585                	li	a1,1
    80000e80:	08b50763          	beq	a0,a1,80000f0e <m_trap+0xcb0>
    80000e84:	b731                	j	80000d90 <m_trap+0xb32>
    80000e86:	65a6                	ld	a1,72(sp)
    80000e88:	6546                	ld	a0,80(sp)
    80000e8a:	952e                	add	a0,a0,a1
    80000e8c:	fc2a                	sd	a0,56(sp)
    80000e8e:	06b56363          	bltu	a0,a1,80000ef4 <m_trap+0xc96>
    80000e92:	a839                	j	80000eb0 <m_trap+0xc52>
    80000e94:	0001c517          	auipc	a0,0x1c
    80000e98:	2bc50513          	addi	a0,a0,700 # 8001d150 <str.1>
    80000e9c:	0001c597          	auipc	a1,0x1c
    80000ea0:	29458613          	addi	a2,a1,660 # 8001d130 <$d.35>
    80000ea4:	02100593          	li	a1,33
    80000ea8:	0000b097          	auipc	ra,0xb
    80000eac:	9a6080e7          	jalr	-1626(ra) # 8000b84e <_ZN4core9panicking5panic17hc1e537fd0d21a68dE>
    80000eb0:	764a                	ld	a2,176(sp)
    80000eb2:	75e2                	ld	a1,56(sp)
    80000eb4:	02004537          	lui	a0,0x2004
    80000eb8:	f82a                	sd	a0,48(sp)
    80000eba:	58a63023          	sd	a0,1408(a2)
    80000ebe:	58b63423          	sd	a1,1416(a2)
    80000ec2:	45a1                	li	a1,8
    80000ec4:	00001097          	auipc	ra,0x1
    80000ec8:	c7a080e7          	jalr	-902(ra) # 80001b3e <_ZN4core3ptr14write_volatile18precondition_check17h33610d963b4ef2dfE>
    80000ecc:	75c2                	ld	a1,48(sp)
    80000ece:	7562                	ld	a0,56(sp)
    80000ed0:	e188                	sd	a0,0(a1)
    80000ed2:	00030517          	auipc	a0,0x30
    80000ed6:	2fe50513          	addi	a0,a0,766 # 800311d0 <_ZN3sos9scheduler9SCHEDULER17h4feafe7022c7564aE>
    80000eda:	00001097          	auipc	ra,0x1
    80000ede:	d1c080e7          	jalr	-740(ra) # 80001bf6 <_ZN3sos9scheduler9Scheduler4next17hb88db31319ee6969E>
    80000ee2:	764a                	ld	a2,176(sp)
    80000ee4:	1aa63023          	sd	a0,416(a2)
    80000ee8:	1ab63423          	sd	a1,424(a2)
    80000eec:	fffff097          	auipc	ra,0xfffff
    80000ef0:	2dc080e7          	jalr	732(ra) # 800001c8 <switch_to_other_process>
    80000ef4:	0001c517          	auipc	a0,0x1c
    80000ef8:	07c50513          	addi	a0,a0,124 # 8001cf70 <str.0>
    80000efc:	0001c597          	auipc	a1,0x1c
    80000f00:	27c58613          	addi	a2,a1,636 # 8001d178 <$d.37>
    80000f04:	45f1                	li	a1,28
    80000f06:	0000b097          	auipc	ra,0xb
    80000f0a:	948080e7          	jalr	-1720(ra) # 8000b84e <_ZN4core9panicking5panic17hc1e537fd0d21a68dE>
    80000f0e:	75ca                	ld	a1,176(sp)
    80000f10:	08c5a503          	lw	a0,140(a1)
    80000f14:	f42a                	sd	a0,40(sp)
    80000f16:	1aa5aa23          	sw	a0,436(a1)
    80000f1a:	45a9                	li	a1,10
    80000f1c:	08b51363          	bne	a0,a1,80000fa2 <m_trap+0xd44>
    80000f20:	a009                	j	80000f22 <m_trap+0xcc4>
    80000f22:	00001097          	auipc	ra,0x1
    80000f26:	a68080e7          	jalr	-1432(ra) # 8000198a <_ZN3sos4uart4Uart3get17hd64bacb7053f817fE>
    80000f2a:	75ca                	ld	a1,176(sp)
    80000f2c:	e9c8                	sd	a0,144(a1)
    80000f2e:	0001c517          	auipc	a0,0x1c
    80000f32:	27250593          	addi	a1,a0,626 # 8001d1a0 <$d.39>
    80000f36:	7ff10513          	addi	a0,sp,2047
    80000f3a:	0f150513          	addi	a0,a0,241
    80000f3e:	e82a                	sd	a0,16(sp)
    80000f40:	4605                	li	a2,1
    80000f42:	ec32                	sd	a2,24(sp)
    80000f44:	0001b097          	auipc	ra,0x1b
    80000f48:	9a0080e7          	jalr	-1632(ra) # 8001b8e4 <_ZN4core3fmt9Arguments9new_const17h9eb3d684bbb30a2eE>
    80000f4c:	65c2                	ld	a1,16(sp)
    80000f4e:	7ff10513          	addi	a0,sp,2047
    80000f52:	0e950513          	addi	a0,a0,233
    80000f56:	00001097          	auipc	ra,0x1
    80000f5a:	d4c080e7          	jalr	-692(ra) # 80001ca2 <_ZN4core3fmt5Write9write_fmt17hcc37dab4e70c9deeE>
    80000f5e:	00000097          	auipc	ra,0x0
    80000f62:	08e080e7          	jalr	142(ra) # 80000fec <_ZN3sos4trap16print_uart_value17h7bab0e9eb0fc8d02E>
    80000f66:	00001097          	auipc	ra,0x1
    80000f6a:	a24080e7          	jalr	-1500(ra) # 8000198a <_ZN3sos4uart4Uart3get17hd64bacb7053f817fE>
    80000f6e:	75ca                	ld	a1,176(sp)
    80000f70:	6662                	ld	a2,24(sp)
    80000f72:	e5e8                	sd	a0,200(a1)
    80000f74:	0001c517          	auipc	a0,0x1c
    80000f78:	25450593          	addi	a1,a0,596 # 8001d1c8 <$d.41>
    80000f7c:	7ff10513          	addi	a0,sp,2047
    80000f80:	12950513          	addi	a0,a0,297
    80000f84:	f02a                	sd	a0,32(sp)
    80000f86:	0001b097          	auipc	ra,0x1b
    80000f8a:	95e080e7          	jalr	-1698(ra) # 8001b8e4 <_ZN4core3fmt9Arguments9new_const17h9eb3d684bbb30a2eE>
    80000f8e:	7582                	ld	a1,32(sp)
    80000f90:	7ff10513          	addi	a0,sp,2047
    80000f94:	12150513          	addi	a0,a0,289
    80000f98:	00001097          	auipc	ra,0x1
    80000f9c:	d0a080e7          	jalr	-758(ra) # 80001ca2 <_ZN4core3fmt5Write9write_fmt17hcc37dab4e70c9deeE>
    80000fa0:	a081                	j	80000fe0 <m_trap+0xd82>
    80000fa2:	00001097          	auipc	ra,0x1
    80000fa6:	9e8080e7          	jalr	-1560(ra) # 8000198a <_ZN3sos4uart4Uart3get17hd64bacb7053f817fE>
    80000faa:	75ca                	ld	a1,176(sp)
    80000fac:	10a5b023          	sd	a0,256(a1)
    80000fb0:	0001c517          	auipc	a0,0x1c
    80000fb4:	24050593          	addi	a1,a0,576 # 8001d1f0 <$d.43>
    80000fb8:	7ff10513          	addi	a0,sp,2047
    80000fbc:	16150513          	addi	a0,a0,353
    80000fc0:	e42a                	sd	a0,8(sp)
    80000fc2:	4605                	li	a2,1
    80000fc4:	0001b097          	auipc	ra,0x1b
    80000fc8:	920080e7          	jalr	-1760(ra) # 8001b8e4 <_ZN4core3fmt9Arguments9new_const17h9eb3d684bbb30a2eE>
    80000fcc:	65a2                	ld	a1,8(sp)
    80000fce:	7ff10513          	addi	a0,sp,2047
    80000fd2:	15950513          	addi	a0,a0,345
    80000fd6:	00001097          	auipc	ra,0x1
    80000fda:	ccc080e7          	jalr	-820(ra) # 80001ca2 <_ZN4core3fmt5Write9write_fmt17hcc37dab4e70c9deeE>
    80000fde:	a009                	j	80000fe0 <m_trap+0xd82>
    80000fe0:	7522                	ld	a0,40(sp)
    80000fe2:	00000097          	auipc	ra,0x0
    80000fe6:	23e080e7          	jalr	574(ra) # 80001220 <_ZN3sos4plic15clear_interrupt17hcc6f92140a3ce432E>
    80000fea:	b35d                	j	80000d90 <m_trap+0xb32>

0000000080000fec <_ZN3sos4trap16print_uart_value17h7bab0e9eb0fc8d02E>:
    80000fec:	7115                	addi	sp,sp,-224
    80000fee:	ed86                	sd	ra,216(sp)
    80000ff0:	00001097          	auipc	ra,0x1
    80000ff4:	99a080e7          	jalr	-1638(ra) # 8000198a <_ZN3sos4uart4Uart3get17hd64bacb7053f817fE>
    80000ff8:	f02a                	sd	a0,32(sp)
    80000ffa:	1008                	addi	a0,sp,32
    80000ffc:	00001097          	auipc	ra,0x1
    80001000:	a34080e7          	jalr	-1484(ra) # 80001a30 <_ZN3sos4uart4Uart4read17h1ff2e23b05d10cfdE>
    80001004:	8905                	andi	a0,a0,1
    80001006:	02a10723          	sb	a0,46(sp)
    8000100a:	02b107a3          	sb	a1,47(sp)
    8000100e:	02e14503          	lbu	a0,46(sp)
    80001012:	8905                	andi	a0,a0,1
    80001014:	c115                	beqz	a0,80001038 <_ZN3sos4trap16print_uart_value17h7bab0e9eb0fc8d02E+0x4c>
    80001016:	a009                	j	80001018 <_ZN3sos4trap16print_uart_value17h7bab0e9eb0fc8d02E+0x2c>
    80001018:	02f14503          	lbu	a0,47(sp)
    8000101c:	ec2a                	sd	a0,24(sp)
    8000101e:	0aa10ba3          	sb	a0,183(sp)
    80001022:	45a9                	li	a1,10
    80001024:	06b50863          	beq	a0,a1,80001094 <_ZN3sos4trap16print_uart_value17h7bab0e9eb0fc8d02E+0xa8>
    80001028:	a009                	j	8000102a <_ZN3sos4trap16print_uart_value17h7bab0e9eb0fc8d02E+0x3e>
    8000102a:	6562                	ld	a0,24(sp)
    8000102c:	0ff57513          	zext.b	a0,a0
    80001030:	45b5                	li	a1,13
    80001032:	06b50163          	beq	a0,a1,80001094 <_ZN3sos4trap16print_uart_value17h7bab0e9eb0fc8d02E+0xa8>
    80001036:	a021                	j	8000103e <_ZN3sos4trap16print_uart_value17h7bab0e9eb0fc8d02E+0x52>
    80001038:	60ee                	ld	ra,216(sp)
    8000103a:	612d                	addi	sp,sp,224
    8000103c:	8082                	ret
    8000103e:	00001097          	auipc	ra,0x1
    80001042:	94c080e7          	jalr	-1716(ra) # 8000198a <_ZN3sos4uart4Uart3get17hd64bacb7053f817fE>
    80001046:	85aa                	mv	a1,a0
    80001048:	6562                	ld	a0,24(sp)
    8000104a:	f4ae                	sd	a1,104(sp)
    8000104c:	0ff57513          	zext.b	a0,a0
    80001050:	d92a                	sw	a0,176(sp)
    80001052:	190c                	addi	a1,sp,176
    80001054:	e5ae                	sd	a1,200(sp)
    80001056:	0000f517          	auipc	a0,0xf
    8000105a:	31c50513          	addi	a0,a0,796 # 80010372 <_ZN43_$LT$char$u20$as$u20$core..fmt..Display$GT$3fmt17h305992913398766bE>
    8000105e:	e9aa                	sd	a0,208(sp)
    80001060:	fd2e                	sd	a1,184(sp)
    80001062:	e1aa                	sd	a0,192(sp)
    80001064:	75ea                	ld	a1,184(sp)
    80001066:	650e                	ld	a0,192(sp)
    80001068:	f12e                	sd	a1,160(sp)
    8000106a:	f52a                	sd	a0,168(sp)
    8000106c:	0001c517          	auipc	a0,0x1c
    80001070:	1ec50593          	addi	a1,a0,492 # 8001d258 <$d.48>
    80001074:	1888                	addi	a0,sp,112
    80001076:	e82a                	sd	a0,16(sp)
    80001078:	1114                	addi	a3,sp,160
    8000107a:	4705                	li	a4,1
    8000107c:	863a                	mv	a2,a4
    8000107e:	0001a097          	auipc	ra,0x1a
    80001082:	7d6080e7          	jalr	2006(ra) # 8001b854 <_ZN4core3fmt9Arguments6new_v117h1284f79f6fe93eb5E>
    80001086:	65c2                	ld	a1,16(sp)
    80001088:	10a8                	addi	a0,sp,104
    8000108a:	00001097          	auipc	ra,0x1
    8000108e:	c18080e7          	jalr	-1000(ra) # 80001ca2 <_ZN4core3fmt5Write9write_fmt17hcc37dab4e70c9deeE>
    80001092:	b75d                	j	80001038 <_ZN3sos4trap16print_uart_value17h7bab0e9eb0fc8d02E+0x4c>
    80001094:	00001097          	auipc	ra,0x1
    80001098:	8f6080e7          	jalr	-1802(ra) # 8000198a <_ZN3sos4uart4Uart3get17hd64bacb7053f817fE>
    8000109c:	f82a                	sd	a0,48(sp)
    8000109e:	0001c517          	auipc	a0,0x1c
    800010a2:	1aa50593          	addi	a1,a0,426 # 8001d248 <$d.47>
    800010a6:	1828                	addi	a0,sp,56
    800010a8:	e42a                	sd	a0,8(sp)
    800010aa:	4605                	li	a2,1
    800010ac:	0001b097          	auipc	ra,0x1b
    800010b0:	838080e7          	jalr	-1992(ra) # 8001b8e4 <_ZN4core3fmt9Arguments9new_const17h9eb3d684bbb30a2eE>
    800010b4:	65a2                	ld	a1,8(sp)
    800010b6:	1808                	addi	a0,sp,48
    800010b8:	00001097          	auipc	ra,0x1
    800010bc:	bea080e7          	jalr	-1046(ra) # 80001ca2 <_ZN4core3fmt5Write9write_fmt17hcc37dab4e70c9deeE>
    800010c0:	bfa5                	j	80001038 <_ZN3sos4trap16print_uart_value17h7bab0e9eb0fc8d02E+0x4c>

00000000800010c2 <_ZN3sos4plic4init17h29ee96d679470da9E>:
    800010c2:	1141                	addi	sp,sp,-16
    800010c4:	e406                	sd	ra,8(sp)
    800010c6:	4501                	li	a0,0
    800010c8:	00000097          	auipc	ra,0x0
    800010cc:	0ea080e7          	jalr	234(ra) # 800011b2 <_ZN3sos4plic13set_threshold17h54f8ddd48d021672E>
    800010d0:	4529                	li	a0,10
    800010d2:	e02a                	sd	a0,0(sp)
    800010d4:	00000097          	auipc	ra,0x0
    800010d8:	01a080e7          	jalr	26(ra) # 800010ee <_ZN3sos4plic13enable_device17h6f426a6a55e2a8f2E>
    800010dc:	6502                	ld	a0,0(sp)
    800010de:	4585                	li	a1,1
    800010e0:	00000097          	auipc	ra,0x0
    800010e4:	092080e7          	jalr	146(ra) # 80001172 <_ZN3sos4plic12set_priority17h1510f67086d06923E>
    800010e8:	60a2                	ld	ra,8(sp)
    800010ea:	0141                	addi	sp,sp,16
    800010ec:	8082                	ret

00000000800010ee <_ZN3sos4plic13enable_device17h6f426a6a55e2a8f2E>:
    800010ee:	7159                	addi	sp,sp,-112
    800010f0:	f486                	sd	ra,104(sp)
    800010f2:	0005059b          	sext.w	a1,a0
    800010f6:	f02e                	sd	a1,32(sp)
    800010f8:	85aa                	mv	a1,a0
    800010fa:	e82e                	sd	a1,16(sp)
    800010fc:	da2a                	sw	a0,52(sp)
    800010fe:	0c002537          	lui	a0,0xc002
    80001102:	ec2a                	sd	a0,24(sp)
    80001104:	fc2a                	sd	a0,56(sp)
    80001106:	e0aa                	sd	a0,64(sp)
    80001108:	e4aa                	sd	a0,72(sp)
    8000110a:	4591                	li	a1,4
    8000110c:	00001097          	auipc	ra,0x1
    80001110:	a04080e7          	jalr	-1532(ra) # 80001b10 <_ZN4core3ptr13read_volatile18precondition_check17h089078e0ad942a78E>
    80001114:	6562                	ld	a0,24(sp)
    80001116:	7582                	ld	a1,32(sp)
    80001118:	4108                	lw	a0,0(a0)
    8000111a:	caaa                	sw	a0,84(sp)
    8000111c:	4556                	lw	a0,84(sp)
    8000111e:	f42a                	sd	a0,40(sp)
    80001120:	457d                	li	a0,31
    80001122:	02b56a63          	bltu	a0,a1,80001156 <_ZN3sos4plic13enable_device17h6f426a6a55e2a8f2E+0x68>
    80001126:	a009                	j	80001128 <_ZN3sos4plic13enable_device17h6f426a6a55e2a8f2E+0x3a>
    80001128:	7522                	ld	a0,40(sp)
    8000112a:	6642                	ld	a2,16(sp)
    8000112c:	4585                	li	a1,1
    8000112e:	00c595bb          	sllw	a1,a1,a2
    80001132:	8dc9                	or	a1,a1,a0
    80001134:	e42e                	sd	a1,8(sp)
    80001136:	0c002537          	lui	a0,0xc002
    8000113a:	e02a                	sd	a0,0(sp)
    8000113c:	ecaa                	sd	a0,88(sp)
    8000113e:	d2ae                	sw	a1,100(sp)
    80001140:	4591                	li	a1,4
    80001142:	00001097          	auipc	ra,0x1
    80001146:	9fc080e7          	jalr	-1540(ra) # 80001b3e <_ZN4core3ptr14write_volatile18precondition_check17h33610d963b4ef2dfE>
    8000114a:	6582                	ld	a1,0(sp)
    8000114c:	6522                	ld	a0,8(sp)
    8000114e:	c188                	sw	a0,0(a1)
    80001150:	70a6                	ld	ra,104(sp)
    80001152:	6165                	addi	sp,sp,112
    80001154:	8082                	ret
    80001156:	0001c517          	auipc	a0,0x1c
    8000115a:	13a50513          	addi	a0,a0,314 # 8001d290 <str.0>
    8000115e:	0001c597          	auipc	a1,0x1c
    80001162:	11a58613          	addi	a2,a1,282 # 8001d278 <$d.7>
    80001166:	02300593          	li	a1,35
    8000116a:	0000a097          	auipc	ra,0xa
    8000116e:	6e4080e7          	jalr	1764(ra) # 8000b84e <_ZN4core9panicking5panic17hc1e537fd0d21a68dE>

0000000080001172 <_ZN3sos4plic12set_priority17h1510f67086d06923E>:
    80001172:	715d                	addi	sp,sp,-80
    80001174:	e486                	sd	ra,72(sp)
    80001176:	ca2a                	sw	a0,20(sp)
    80001178:	00b10da3          	sb	a1,27(sp)
    8000117c:	899d                	andi	a1,a1,7
    8000117e:	e42e                	sd	a1,8(sp)
    80001180:	ce2e                	sw	a1,28(sp)
    80001182:	0c000637          	lui	a2,0xc000
    80001186:	f032                	sd	a2,32(sp)
    80001188:	1502                	slli	a0,a0,0x20
    8000118a:	02055693          	srli	a3,a0,0x20
    8000118e:	fc32                	sd	a2,56(sp)
    80001190:	e0b6                	sd	a3,64(sp)
    80001192:	8179                	srli	a0,a0,0x1e
    80001194:	9532                	add	a0,a0,a2
    80001196:	e02a                	sd	a0,0(sp)
    80001198:	f42a                	sd	a0,40(sp)
    8000119a:	da2e                	sw	a1,52(sp)
    8000119c:	4591                	li	a1,4
    8000119e:	00001097          	auipc	ra,0x1
    800011a2:	9a0080e7          	jalr	-1632(ra) # 80001b3e <_ZN4core3ptr14write_volatile18precondition_check17h33610d963b4ef2dfE>
    800011a6:	6582                	ld	a1,0(sp)
    800011a8:	6522                	ld	a0,8(sp)
    800011aa:	c188                	sw	a0,0(a1)
    800011ac:	60a6                	ld	ra,72(sp)
    800011ae:	6161                	addi	sp,sp,80
    800011b0:	8082                	ret

00000000800011b2 <_ZN3sos4plic13set_threshold17h54f8ddd48d021672E>:
    800011b2:	7139                	addi	sp,sp,-64
    800011b4:	fc06                	sd	ra,56(sp)
    800011b6:	00a10f23          	sb	a0,30(sp)
    800011ba:	00757593          	andi	a1,a0,7
    800011be:	e82e                	sd	a1,16(sp)
    800011c0:	00b10fa3          	sb	a1,31(sp)
    800011c4:	0c200537          	lui	a0,0xc200
    800011c8:	e42a                	sd	a0,8(sp)
    800011ca:	f02a                	sd	a0,32(sp)
    800011cc:	f42a                	sd	a0,40(sp)
    800011ce:	da2e                	sw	a1,52(sp)
    800011d0:	4591                	li	a1,4
    800011d2:	00001097          	auipc	ra,0x1
    800011d6:	96c080e7          	jalr	-1684(ra) # 80001b3e <_ZN4core3ptr14write_volatile18precondition_check17h33610d963b4ef2dfE>
    800011da:	65a2                	ld	a1,8(sp)
    800011dc:	6542                	ld	a0,16(sp)
    800011de:	c188                	sw	a0,0(a1)
    800011e0:	70e2                	ld	ra,56(sp)
    800011e2:	6121                	addi	sp,sp,64
    800011e4:	8082                	ret

00000000800011e6 <_ZN3sos4plic14next_interrupt17h23ef129d77d133b5E>:
    800011e6:	1101                	addi	sp,sp,-32
    800011e8:	ec06                	sd	ra,24(sp)
    800011ea:	0c200537          	lui	a0,0xc200
    800011ee:	2511                	addiw	a0,a0,4 # c200004 <_heap_size+0x42b11ec>
    800011f0:	e82a                	sd	a0,16(sp)
    800011f2:	4581                	li	a1,0
    800011f4:	c62e                	sw	a1,12(sp)
    800011f6:	00000097          	auipc	ra,0x0
    800011fa:	6fe080e7          	jalr	1790(ra) # 800018f4 <_ZN4core3ptr9const_ptr33_$LT$impl$u20$$BP$const$u20$T$GT$13read_volatile17h1e77745b73e08741E>
    800011fe:	c62a                	sw	a0,12(sp)
    80001200:	4532                	lw	a0,12(sp)
    80001202:	e509                	bnez	a0,8000120c <_ZN3sos4plic14next_interrupt17h23ef129d77d133b5E+0x26>
    80001204:	a009                	j	80001206 <_ZN3sos4plic14next_interrupt17h23ef129d77d133b5E+0x20>
    80001206:	4501                	li	a0,0
    80001208:	c22a                	sw	a0,4(sp)
    8000120a:	a031                	j	80001216 <_ZN3sos4plic14next_interrupt17h23ef129d77d133b5E+0x30>
    8000120c:	4532                	lw	a0,12(sp)
    8000120e:	c42a                	sw	a0,8(sp)
    80001210:	4505                	li	a0,1
    80001212:	c22a                	sw	a0,4(sp)
    80001214:	a009                	j	80001216 <_ZN3sos4plic14next_interrupt17h23ef129d77d133b5E+0x30>
    80001216:	4512                	lw	a0,4(sp)
    80001218:	45a2                	lw	a1,8(sp)
    8000121a:	60e2                	ld	ra,24(sp)
    8000121c:	6105                	addi	sp,sp,32
    8000121e:	8082                	ret

0000000080001220 <_ZN3sos4plic15clear_interrupt17hcc6f92140a3ce432E>:
    80001220:	7139                	addi	sp,sp,-64
    80001222:	fc06                	sd	ra,56(sp)
    80001224:	85aa                	mv	a1,a0
    80001226:	e82e                	sd	a1,16(sp)
    80001228:	ce2e                	sw	a1,28(sp)
    8000122a:	0c200537          	lui	a0,0xc200
    8000122e:	e42a                	sd	a0,8(sp)
    80001230:	2511                	addiw	a0,a0,4 # c200004 <_heap_size+0x42b11ec>
    80001232:	f02a                	sd	a0,32(sp)
    80001234:	f42a                	sd	a0,40(sp)
    80001236:	da2e                	sw	a1,52(sp)
    80001238:	4591                	li	a1,4
    8000123a:	00001097          	auipc	ra,0x1
    8000123e:	904080e7          	jalr	-1788(ra) # 80001b3e <_ZN4core3ptr14write_volatile18precondition_check17h33610d963b4ef2dfE>
    80001242:	65a2                	ld	a1,8(sp)
    80001244:	6542                	ld	a0,16(sp)
    80001246:	c1c8                	sw	a0,4(a1)
    80001248:	70e2                	ld	ra,56(sp)
    8000124a:	6121                	addi	sp,sp,64
    8000124c:	8082                	ret

000000008000124e <rust_begin_unwind>:
    8000124e:	7145                	addi	sp,sp,-464
    80001250:	e786                	sd	ra,456(sp)
    80001252:	e0aa                	sd	a0,64(sp)
    80001254:	e6aa                	sd	a0,328(sp)
    80001256:	00000097          	auipc	ra,0x0
    8000125a:	734080e7          	jalr	1844(ra) # 8000198a <_ZN3sos4uart4Uart3get17hd64bacb7053f817fE>
    8000125e:	e4aa                	sd	a0,72(sp)
    80001260:	0001c517          	auipc	a0,0x1c
    80001264:	06050593          	addi	a1,a0,96 # 8001d2c0 <$d.4>
    80001268:	0888                	addi	a0,sp,80
    8000126a:	fc2a                	sd	a0,56(sp)
    8000126c:	4605                	li	a2,1
    8000126e:	0001a097          	auipc	ra,0x1a
    80001272:	676080e7          	jalr	1654(ra) # 8001b8e4 <_ZN4core3fmt9Arguments9new_const17h9eb3d684bbb30a2eE>
    80001276:	75e2                	ld	a1,56(sp)
    80001278:	00a8                	addi	a0,sp,72
    8000127a:	00001097          	auipc	ra,0x1
    8000127e:	a28080e7          	jalr	-1496(ra) # 80001ca2 <_ZN4core3fmt5Write9write_fmt17hcc37dab4e70c9deeE>
    80001282:	6506                	ld	a0,64(sp)
    80001284:	00001097          	auipc	ra,0x1
    80001288:	af8080e7          	jalr	-1288(ra) # 80001d7c <_ZN4core5panic10panic_info9PanicInfo8location17h640df8e23593b498E>
    8000128c:	e12a                	sd	a0,128(sp)
    8000128e:	650a                	ld	a0,128(sp)
    80001290:	c16d                	beqz	a0,80001372 <rust_begin_unwind+0x124>
    80001292:	a009                	j	80001294 <rust_begin_unwind+0x46>
    80001294:	650a                	ld	a0,128(sp)
    80001296:	e82a                	sd	a0,16(sp)
    80001298:	eaaa                	sd	a0,336(sp)
    8000129a:	00000097          	auipc	ra,0x0
    8000129e:	6f0080e7          	jalr	1776(ra) # 8000198a <_ZN3sos4uart4Uart3get17hd64bacb7053f817fE>
    800012a2:	85aa                	mv	a1,a0
    800012a4:	6542                	ld	a0,16(sp)
    800012a6:	e52e                	sd	a1,136(sp)
    800012a8:	00001097          	auipc	ra,0x1
    800012ac:	afa080e7          	jalr	-1286(ra) # 80001da2 <_ZN4core5panic8location8Location4line17h6c8a81aaba53bfe6E>
    800012b0:	85aa                	mv	a1,a0
    800012b2:	6542                	ld	a0,16(sp)
    800012b4:	dbae                	sw	a1,244(sp)
    800012b6:	19d0                	addi	a2,sp,244
    800012b8:	f732                	sd	a2,424(sp)
    800012ba:	00017597          	auipc	a1,0x17
    800012be:	57858593          	addi	a1,a1,1400 # 80018832 <_ZN4core3fmt3num3imp52_$LT$impl$u20$core..fmt..Display$u20$for$u20$u32$GT$3fmt17hfa82b5f1a07608a5E>
    800012c2:	fb2e                	sd	a1,432(sp)
    800012c4:	ef32                	sd	a2,408(sp)
    800012c6:	f32e                	sd	a1,416(sp)
    800012c8:	65fa                	ld	a1,408(sp)
    800012ca:	ec2e                	sd	a1,24(sp)
    800012cc:	759a                	ld	a1,416(sp)
    800012ce:	f02e                	sd	a1,32(sp)
    800012d0:	00001097          	auipc	ra,0x1
    800012d4:	ac4080e7          	jalr	-1340(ra) # 80001d94 <_ZN4core5panic8location8Location4file17ha9a8c8471b61d769E>
    800012d8:	862a                	mv	a2,a0
    800012da:	6506                	ld	a0,64(sp)
    800012dc:	fdb2                	sd	a2,248(sp)
    800012de:	e22e                	sd	a1,256(sp)
    800012e0:	19b0                	addi	a2,sp,248
    800012e2:	f6b2                	sd	a2,360(sp)
    800012e4:	00001597          	auipc	a1,0x1
    800012e8:	88858593          	addi	a1,a1,-1912 # 80001b6c <_ZN44_$LT$$RF$T$u20$as$u20$core..fmt..Display$GT$3fmt17h3cb2e2124f7ca5c3E>
    800012ec:	faae                	sd	a1,368(sp)
    800012ee:	eeb2                	sd	a2,344(sp)
    800012f0:	f2ae                	sd	a1,352(sp)
    800012f2:	65f6                	ld	a1,344(sp)
    800012f4:	f42e                	sd	a1,40(sp)
    800012f6:	7596                	ld	a1,352(sp)
    800012f8:	f82e                	sd	a1,48(sp)
    800012fa:	00001097          	auipc	ra,0x1
    800012fe:	a78080e7          	jalr	-1416(ra) # 80001d72 <_ZN4core5panic10panic_info9PanicInfo7message17h818d7378c4c8d113E>
    80001302:	ff2a                	sd	a0,440(sp)
    80001304:	757a                	ld	a0,440(sp)
    80001306:	e911                	bnez	a0,8000131a <rust_begin_unwind+0xcc>
    80001308:	a009                	j	8000130a <rust_begin_unwind+0xbc>
    8000130a:	0001c517          	auipc	a0,0x1c
    8000130e:	02650513          	addi	a0,a0,38 # 8001d330 <$d.11>
    80001312:	0000a097          	auipc	ra,0xa
    80001316:	2a4080e7          	jalr	676(ra) # 8000b5b6 <_ZN4core6option13unwrap_failed17h4559e937e1c34e96E>
    8000131a:	7642                	ld	a2,48(sp)
    8000131c:	76a2                	ld	a3,40(sp)
    8000131e:	7702                	ld	a4,32(sp)
    80001320:	67e2                	ld	a5,24(sp)
    80001322:	757a                	ld	a0,440(sp)
    80001324:	e3aa                	sd	a0,448(sp)
    80001326:	e62a                	sd	a0,264(sp)
    80001328:	022c                	addi	a1,sp,264
    8000132a:	e72e                	sd	a1,392(sp)
    8000132c:	00001517          	auipc	a0,0x1
    80001330:	85e50513          	addi	a0,a0,-1954 # 80001b8a <_ZN44_$LT$$RF$T$u20$as$u20$core..fmt..Display$GT$3fmt17h785ab6a4a7fdf26cE>
    80001334:	eb2a                	sd	a0,400(sp)
    80001336:	feae                	sd	a1,376(sp)
    80001338:	e32a                	sd	a0,384(sp)
    8000133a:	75f6                	ld	a1,376(sp)
    8000133c:	651a                	ld	a0,384(sp)
    8000133e:	e1be                	sd	a5,192(sp)
    80001340:	e5ba                	sd	a4,200(sp)
    80001342:	e9b6                	sd	a3,208(sp)
    80001344:	edb2                	sd	a2,216(sp)
    80001346:	f1ae                	sd	a1,224(sp)
    80001348:	f5aa                	sd	a0,232(sp)
    8000134a:	0001c517          	auipc	a0,0x1c
    8000134e:	f9650593          	addi	a1,a0,-106 # 8001d2e0 <$d.9>
    80001352:	0908                	addi	a0,sp,144
    80001354:	e42a                	sd	a0,8(sp)
    80001356:	4611                	li	a2,4
    80001358:	0194                	addi	a3,sp,192
    8000135a:	470d                	li	a4,3
    8000135c:	0001a097          	auipc	ra,0x1a
    80001360:	4f8080e7          	jalr	1272(ra) # 8001b854 <_ZN4core3fmt9Arguments6new_v117h1284f79f6fe93eb5E>
    80001364:	65a2                	ld	a1,8(sp)
    80001366:	0128                	addi	a0,sp,136
    80001368:	00001097          	auipc	ra,0x1
    8000136c:	93a080e7          	jalr	-1734(ra) # 80001ca2 <_ZN4core3fmt5Write9write_fmt17hcc37dab4e70c9deeE>
    80001370:	a805                	j	800013a0 <rust_begin_unwind+0x152>
    80001372:	00000097          	auipc	ra,0x0
    80001376:	618080e7          	jalr	1560(ra) # 8000198a <_ZN3sos4uart4Uart3get17hd64bacb7053f817fE>
    8000137a:	ea2a                	sd	a0,272(sp)
    8000137c:	0001c517          	auipc	a0,0x1c
    80001380:	fec50593          	addi	a1,a0,-20 # 8001d368 <$d.13>
    80001384:	0a28                	addi	a0,sp,280
    80001386:	e02a                	sd	a0,0(sp)
    80001388:	4605                	li	a2,1
    8000138a:	0001a097          	auipc	ra,0x1a
    8000138e:	55a080e7          	jalr	1370(ra) # 8001b8e4 <_ZN4core3fmt9Arguments9new_const17h9eb3d684bbb30a2eE>
    80001392:	6582                	ld	a1,0(sp)
    80001394:	0a08                	addi	a0,sp,272
    80001396:	00001097          	auipc	ra,0x1
    8000139a:	90c080e7          	jalr	-1780(ra) # 80001ca2 <_ZN4core3fmt5Write9write_fmt17hcc37dab4e70c9deeE>
    8000139e:	a009                	j	800013a0 <rust_begin_unwind+0x152>
    800013a0:	a001                	j	800013a0 <rust_begin_unwind+0x152>

00000000800013a2 <_ZN3sos4init17h224e346967628ebbE>:
    800013a2:	1141                	addi	sp,sp,-16
    800013a4:	e406                	sd	ra,8(sp)
    800013a6:	10000537          	lui	a0,0x10000
    800013aa:	00000097          	auipc	ra,0x0
    800013ae:	5ee080e7          	jalr	1518(ra) # 80001998 <_ZN3sos4uart4Uart12start_driver17h7872f0c60582c294E>
    800013b2:	00000097          	auipc	ra,0x0
    800013b6:	0d0080e7          	jalr	208(ra) # 80001482 <_ZN3sos14page_allocator14init_allocator17h1aeefe386abc0373E>
    800013ba:	00000097          	auipc	ra,0x0
    800013be:	d08080e7          	jalr	-760(ra) # 800010c2 <_ZN3sos4plic4init17h29ee96d679470da9E>
    800013c2:	00000097          	auipc	ra,0x0
    800013c6:	7e0080e7          	jalr	2016(ra) # 80001ba2 <_ZN3sos9scheduler4init17ha8762e9c514389b1E>
    800013ca:	60a2                	ld	ra,8(sp)
    800013cc:	0141                	addi	sp,sp,16
    800013ce:	8082                	ret

00000000800013d0 <kmain>:
    800013d0:	1141                	addi	sp,sp,-16
    800013d2:	e406                	sd	ra,8(sp)
    800013d4:	00000097          	auipc	ra,0x0
    800013d8:	fce080e7          	jalr	-50(ra) # 800013a2 <_ZN3sos4init17h224e346967628ebbE>
    800013dc:	60a2                	ld	ra,8(sp)
    800013de:	0141                	addi	sp,sp,16
    800013e0:	8082                	ret

00000000800013e2 <_ZN3sos14page_allocator4Page4free17h2866fd72db23a18cE>:
    800013e2:	1141                	addi	sp,sp,-16
    800013e4:	e42a                	sd	a0,8(sp)
    800013e6:	00054503          	lbu	a0,0(a0) # 10000000 <_heap_size+0x80b11e8>
    800013ea:	0001c597          	auipc	a1,0x1c
    800013ee:	f8e58593          	addi	a1,a1,-114 # 8001d378 <_ZN3sos14page_allocator10EMPTY_PAGE17h0c12b54760cb69bdE>
    800013f2:	0005c583          	lbu	a1,0(a1)
    800013f6:	8d2d                	xor	a0,a0,a1
    800013f8:	00153513          	seqz	a0,a0
    800013fc:	0141                	addi	sp,sp,16
    800013fe:	8082                	ret

0000000080001400 <_ZN3sos14page_allocator4Page5taken17h4ede945fb6e8ee17E>:
    80001400:	1141                	addi	sp,sp,-16
    80001402:	e42a                	sd	a0,8(sp)
    80001404:	00054503          	lbu	a0,0(a0)
    80001408:	0001c597          	auipc	a1,0x1c
    8000140c:	f7158593          	addi	a1,a1,-143 # 8001d379 <_ZN3sos14page_allocator10TAKEN_FLAG17h64d7676c79774804E>
    80001410:	0005c583          	lbu	a1,0(a1)
    80001414:	8d6d                	and	a0,a0,a1
    80001416:	00a03533          	snez	a0,a0
    8000141a:	0141                	addi	sp,sp,16
    8000141c:	8082                	ret

000000008000141e <_ZN3sos14page_allocator4Page8set_flag17h62742c0ed2f1faf8E>:
    8000141e:	1141                	addi	sp,sp,-16
    80001420:	862e                	mv	a2,a1
    80001422:	85aa                	mv	a1,a0
    80001424:	e02e                	sd	a1,0(sp)
    80001426:	00c107a3          	sb	a2,15(sp)
    8000142a:	0005c503          	lbu	a0,0(a1)
    8000142e:	8d51                	or	a0,a0,a2
    80001430:	00a58023          	sb	a0,0(a1)
    80001434:	0141                	addi	sp,sp,16
    80001436:	8082                	ret

0000000080001438 <_ZN3sos14page_allocator4Page15clear_all_flags17h1c77cc7dbd1838abE>:
    80001438:	1141                	addi	sp,sp,-16
    8000143a:	85aa                	mv	a1,a0
    8000143c:	e42e                	sd	a1,8(sp)
    8000143e:	4501                	li	a0,0
    80001440:	00a58023          	sb	a0,0(a1)
    80001444:	0141                	addi	sp,sp,16
    80001446:	8082                	ret

0000000080001448 <_ZN3sos14page_allocator19page_align_round_up17hc01f3cbc5f745345E>:
    80001448:	1101                	addi	sp,sp,-32
    8000144a:	85aa                	mv	a1,a0
    8000144c:	e82e                	sd	a1,16(sp)
    8000144e:	6505                	lui	a0,0x1
    80001450:	357d                	addiw	a0,a0,-1 # fff <$d.2+0x9>
    80001452:	ec2a                	sd	a0,24(sp)
    80001454:	952e                	add	a0,a0,a1
    80001456:	e42a                	sd	a0,8(sp)
    80001458:	00b56863          	bltu	a0,a1,80001468 <_ZN3sos14page_allocator19page_align_round_up17hc01f3cbc5f745345E+0x20>
    8000145c:	a009                	j	8000145e <_ZN3sos14page_allocator19page_align_round_up17hc01f3cbc5f745345E+0x16>
    8000145e:	6522                	ld	a0,8(sp)
    80001460:	75fd                	lui	a1,0xfffff
    80001462:	8d6d                	and	a0,a0,a1
    80001464:	6105                	addi	sp,sp,32
    80001466:	8082                	ret
    80001468:	0001c517          	auipc	a0,0x1c
    8000146c:	f5850513          	addi	a0,a0,-168 # 8001d3c0 <str.0>
    80001470:	0001c597          	auipc	a1,0x1c
    80001474:	f3058613          	addi	a2,a1,-208 # 8001d3a0 <$d.13>
    80001478:	45f1                	li	a1,28
    8000147a:	0000a097          	auipc	ra,0xa
    8000147e:	3d4080e7          	jalr	980(ra) # 8000b84e <_ZN4core9panicking5panic17hc1e537fd0d21a68dE>

0000000080001482 <_ZN3sos14page_allocator14init_allocator17h1aeefe386abc0373E>:
    80001482:	7175                	addi	sp,sp,-144
    80001484:	e506                	sd	ra,136(sp)
    80001486:	0001c517          	auipc	a0,0x1c
    8000148a:	80250513          	addi	a0,a0,-2046 # 8001cc88 <HEAP_SIZE>
    8000148e:	6108                	ld	a0,0(a0)
    80001490:	f42a                	sd	a0,40(sp)
    80001492:	0001c517          	auipc	a0,0x1c
    80001496:	eee50513          	addi	a0,a0,-274 # 8001d380 <_ZN3sos14page_allocator9PAGE_SIZE17hedbb036b917a75fdE>
    8000149a:	6108                	ld	a0,0(a0)
    8000149c:	f82a                	sd	a0,48(sp)
    8000149e:	c90d                	beqz	a0,800014d0 <_ZN3sos14page_allocator14init_allocator17h1aeefe386abc0373E+0x4e>
    800014a0:	a009                	j	800014a2 <_ZN3sos14page_allocator14init_allocator17h1aeefe386abc0373E+0x20>
    800014a2:	7522                	ld	a0,40(sp)
    800014a4:	75c2                	ld	a1,48(sp)
    800014a6:	02b555b3          	divu	a1,a0,a1
    800014aa:	00030517          	auipc	a0,0x30
    800014ae:	d1e50513          	addi	a0,a0,-738 # 800311c8 <_ZN3sos14page_allocator29ALLOCATED_PAGE_HEAP_ALLOCATOR17h6631bedadc9625aaE>
    800014b2:	e10c                	sd	a1,0(a0)
    800014b4:	0001b597          	auipc	a1,0x1b
    800014b8:	7cc58593          	addi	a1,a1,1996 # 8001cc80 <HEAP_START>
    800014bc:	6190                	ld	a2,0(a1)
    800014be:	e832                	sd	a2,16(sp)
    800014c0:	f4b2                	sd	a2,104(sp)
    800014c2:	618c                	ld	a1,0(a1)
    800014c4:	ec2e                	sd	a1,24(sp)
    800014c6:	6108                	ld	a0,0(a0)
    800014c8:	f02a                	sd	a0,32(sp)
    800014ca:	4501                	li	a0,0
    800014cc:	e515                	bnez	a0,800014f8 <_ZN3sos14page_allocator14init_allocator17h1aeefe386abc0373E+0x76>
    800014ce:	a831                	j	800014ea <_ZN3sos14page_allocator14init_allocator17h1aeefe386abc0373E+0x68>
    800014d0:	0001c517          	auipc	a0,0x1c
    800014d4:	f3050513          	addi	a0,a0,-208 # 8001d400 <str.1>
    800014d8:	0001c597          	auipc	a1,0x1c
    800014dc:	f0858613          	addi	a2,a1,-248 # 8001d3e0 <$d.15>
    800014e0:	45e5                	li	a1,25
    800014e2:	0000a097          	auipc	ra,0xa
    800014e6:	36c080e7          	jalr	876(ra) # 8000b84e <_ZN4core9panicking5panic17hc1e537fd0d21a68dE>
    800014ea:	65e2                	ld	a1,24(sp)
    800014ec:	7502                	ld	a0,32(sp)
    800014ee:	952e                	add	a0,a0,a1
    800014f0:	e42a                	sd	a0,8(sp)
    800014f2:	04b56c63          	bltu	a0,a1,8000154a <_ZN3sos14page_allocator14init_allocator17h1aeefe386abc0373E+0xc8>
    800014f6:	a839                	j	80001514 <_ZN3sos14page_allocator14init_allocator17h1aeefe386abc0373E+0x92>
    800014f8:	0001c517          	auipc	a0,0x1c
    800014fc:	f4850513          	addi	a0,a0,-184 # 8001d440 <str.2>
    80001500:	0001c597          	auipc	a1,0x1c
    80001504:	f2058613          	addi	a2,a1,-224 # 8001d420 <$d.17>
    80001508:	02100593          	li	a1,33
    8000150c:	0000a097          	auipc	ra,0xa
    80001510:	342080e7          	jalr	834(ra) # 8000b84e <_ZN4core9panicking5panic17hc1e537fd0d21a68dE>
    80001514:	6522                	ld	a0,8(sp)
    80001516:	00000097          	auipc	ra,0x0
    8000151a:	f32080e7          	jalr	-206(ra) # 80001448 <_ZN3sos14page_allocator19page_align_round_up17hc01f3cbc5f745345E>
    8000151e:	00030597          	auipc	a1,0x30
    80001522:	ca258593          	addi	a1,a1,-862 # 800311c0 <_ZN3sos14page_allocator11ALLOC_START17h109755aa89b4e5bbE>
    80001526:	e188                	sd	a0,0(a1)
    80001528:	00030517          	auipc	a0,0x30
    8000152c:	ca050513          	addi	a0,a0,-864 # 800311c8 <_ZN3sos14page_allocator29ALLOCATED_PAGE_HEAP_ALLOCATOR17h6631bedadc9625aaE>
    80001530:	6108                	ld	a0,0(a0)
    80001532:	4581                	li	a1,0
    80001534:	fc2e                	sd	a1,56(sp)
    80001536:	e0aa                	sd	a0,64(sp)
    80001538:	7562                	ld	a0,56(sp)
    8000153a:	6586                	ld	a1,64(sp)
    8000153c:	00001097          	auipc	ra,0x1
    80001540:	938080e7          	jalr	-1736(ra) # 80001e74 <_ZN63_$LT$I$u20$as$u20$core..iter..traits..collect..IntoIterator$GT$9into_iter17h247736a8e622b520E>
    80001544:	e4aa                	sd	a0,72(sp)
    80001546:	e8ae                	sd	a1,80(sp)
    80001548:	a831                	j	80001564 <_ZN3sos14page_allocator14init_allocator17h1aeefe386abc0373E+0xe2>
    8000154a:	0001c517          	auipc	a0,0x1c
    8000154e:	e7650513          	addi	a0,a0,-394 # 8001d3c0 <str.0>
    80001552:	0001c597          	auipc	a1,0x1c
    80001556:	f1658613          	addi	a2,a1,-234 # 8001d468 <$d.19>
    8000155a:	45f1                	li	a1,28
    8000155c:	0000a097          	auipc	ra,0xa
    80001560:	2f2080e7          	jalr	754(ra) # 8000b84e <_ZN4core9panicking5panic17hc1e537fd0d21a68dE>
    80001564:	00a8                	addi	a0,sp,72
    80001566:	00001097          	auipc	ra,0x1
    8000156a:	8fa080e7          	jalr	-1798(ra) # 80001e60 <_ZN4core4iter5range101_$LT$impl$u20$core..iter..traits..iterator..Iterator$u20$for$u20$core..ops..range..Range$LT$A$GT$$GT$4next17hdface09eb370ad0cE>
    8000156e:	ecaa                	sd	a0,88(sp)
    80001570:	f0ae                	sd	a1,96(sp)
    80001572:	6566                	ld	a0,88(sp)
    80001574:	e509                	bnez	a0,8000157e <_ZN3sos14page_allocator14init_allocator17h1aeefe386abc0373E+0xfc>
    80001576:	a009                	j	80001578 <_ZN3sos14page_allocator14init_allocator17h1aeefe386abc0373E+0xf6>
    80001578:	60aa                	ld	ra,136(sp)
    8000157a:	6149                	addi	sp,sp,144
    8000157c:	8082                	ret
    8000157e:	6542                	ld	a0,16(sp)
    80001580:	7586                	ld	a1,96(sp)
    80001582:	f8ae                	sd	a1,112(sp)
    80001584:	fcaa                	sd	a0,120(sp)
    80001586:	e12e                	sd	a1,128(sp)
    80001588:	952e                	add	a0,a0,a1
    8000158a:	00000097          	auipc	ra,0x0
    8000158e:	eae080e7          	jalr	-338(ra) # 80001438 <_ZN3sos14page_allocator4Page15clear_all_flags17h1c77cc7dbd1838abE>
    80001592:	bfc9                	j	80001564 <_ZN3sos14page_allocator14init_allocator17h1aeefe386abc0373E+0xe2>

0000000080001594 <_ZN3sos14page_allocator5alloc17h5af4518a8a250dbaE>:
    80001594:	df010113          	addi	sp,sp,-528
    80001598:	20113423          	sd	ra,520(sp)
    8000159c:	e12a                	sd	a0,128(sp)
    8000159e:	eeaa                	sd	a0,344(sp)
    800015a0:	ed19                	bnez	a0,800015be <_ZN3sos14page_allocator5alloc17h5af4518a8a250dbaE+0x2a>
    800015a2:	a009                	j	800015a4 <_ZN3sos14page_allocator5alloc17h5af4518a8a250dbaE+0x10>
    800015a4:	0001c517          	auipc	a0,0x1c
    800015a8:	edc50513          	addi	a0,a0,-292 # 8001d480 <$d.20>
    800015ac:	0001c597          	auipc	a1,0x1c
    800015b0:	ef458613          	addi	a2,a1,-268 # 8001d4a0 <$d.21>
    800015b4:	45ed                	li	a1,27
    800015b6:	0000a097          	auipc	ra,0xa
    800015ba:	298080e7          	jalr	664(ra) # 8000b84e <_ZN4core9panicking5panic17hc1e537fd0d21a68dE>
    800015be:	0001b517          	auipc	a0,0x1b
    800015c2:	6c250513          	addi	a0,a0,1730 # 8001cc80 <HEAP_START>
    800015c6:	6108                	ld	a0,0(a0)
    800015c8:	f4aa                	sd	a0,104(sp)
    800015ca:	f2aa                	sd	a0,352(sp)
    800015cc:	0001b517          	auipc	a0,0x1b
    800015d0:	6bc50513          	addi	a0,a0,1724 # 8001cc88 <HEAP_SIZE>
    800015d4:	6108                	ld	a0,0(a0)
    800015d6:	f8aa                	sd	a0,112(sp)
    800015d8:	0001c517          	auipc	a0,0x1c
    800015dc:	da850513          	addi	a0,a0,-600 # 8001d380 <_ZN3sos14page_allocator9PAGE_SIZE17hedbb036b917a75fdE>
    800015e0:	6108                	ld	a0,0(a0)
    800015e2:	fcaa                	sd	a0,120(sp)
    800015e4:	c11d                	beqz	a0,8000160a <_ZN3sos14page_allocator5alloc17h5af4518a8a250dbaE+0x76>
    800015e6:	a009                	j	800015e8 <_ZN3sos14page_allocator5alloc17h5af4518a8a250dbaE+0x54>
    800015e8:	7546                	ld	a0,112(sp)
    800015ea:	75e6                	ld	a1,120(sp)
    800015ec:	02b55533          	divu	a0,a0,a1
    800015f0:	f6aa                	sd	a0,360(sp)
    800015f2:	4581                	li	a1,0
    800015f4:	e92e                	sd	a1,144(sp)
    800015f6:	ed2a                	sd	a0,152(sp)
    800015f8:	654a                	ld	a0,144(sp)
    800015fa:	65ea                	ld	a1,152(sp)
    800015fc:	00001097          	auipc	ra,0x1
    80001600:	878080e7          	jalr	-1928(ra) # 80001e74 <_ZN63_$LT$I$u20$as$u20$core..iter..traits..collect..IntoIterator$GT$9into_iter17h247736a8e622b520E>
    80001604:	f12a                	sd	a0,160(sp)
    80001606:	f52e                	sd	a1,168(sp)
    80001608:	a831                	j	80001624 <_ZN3sos14page_allocator5alloc17h5af4518a8a250dbaE+0x90>
    8000160a:	0001c517          	auipc	a0,0x1c
    8000160e:	df650513          	addi	a0,a0,-522 # 8001d400 <str.1>
    80001612:	0001c597          	auipc	a1,0x1c
    80001616:	ea658613          	addi	a2,a1,-346 # 8001d4b8 <$d.22>
    8000161a:	45e5                	li	a1,25
    8000161c:	0000a097          	auipc	ra,0xa
    80001620:	232080e7          	jalr	562(ra) # 8000b84e <_ZN4core9panicking5panic17hc1e537fd0d21a68dE>
    80001624:	1108                	addi	a0,sp,160
    80001626:	00001097          	auipc	ra,0x1
    8000162a:	83a080e7          	jalr	-1990(ra) # 80001e60 <_ZN4core4iter5range101_$LT$impl$u20$core..iter..traits..iterator..Iterator$u20$for$u20$core..ops..range..Range$LT$A$GT$$GT$4next17hdface09eb370ad0cE>
    8000162e:	f92a                	sd	a0,176(sp)
    80001630:	fd2e                	sd	a1,184(sp)
    80001632:	754a                	ld	a0,176(sp)
    80001634:	ed09                	bnez	a0,8000164e <_ZN3sos14page_allocator5alloc17h5af4518a8a250dbaE+0xba>
    80001636:	a009                	j	80001638 <_ZN3sos14page_allocator5alloc17h5af4518a8a250dbaE+0xa4>
    80001638:	4501                	li	a0,0
    8000163a:	f7aa                	sd	a0,488(sp)
    8000163c:	fbaa                	sd	a0,496(sp)
    8000163e:	20a13023          	sd	a0,512(sp)
    80001642:	20013503          	ld	a0,512(sp)
    80001646:	ffaa                	sd	a0,504(sp)
    80001648:	757e                	ld	a0,504(sp)
    8000164a:	e52a                	sd	a0,136(sp)
    8000164c:	a831                	j	80001668 <_ZN3sos14page_allocator5alloc17h5af4518a8a250dbaE+0xd4>
    8000164e:	7526                	ld	a0,104(sp)
    80001650:	75ea                	ld	a1,184(sp)
    80001652:	f0ae                	sd	a1,96(sp)
    80001654:	faae                	sd	a1,368(sp)
    80001656:	efaa                	sd	a0,472(sp)
    80001658:	f3ae                	sd	a1,480(sp)
    8000165a:	952e                	add	a0,a0,a1
    8000165c:	00000097          	auipc	ra,0x0
    80001660:	d86080e7          	jalr	-634(ra) # 800013e2 <_ZN3sos14page_allocator4Page4free17h2866fd72db23a18cE>
    80001664:	e901                	bnez	a0,80001674 <_ZN3sos14page_allocator5alloc17h5af4518a8a250dbaE+0xe0>
    80001666:	bf7d                	j	80001624 <_ZN3sos14page_allocator5alloc17h5af4518a8a250dbaE+0x90>
    80001668:	652a                	ld	a0,136(sp)
    8000166a:	20813083          	ld	ra,520(sp)
    8000166e:	21010113          	addi	sp,sp,528
    80001672:	8082                	ret
    80001674:	7586                	ld	a1,96(sp)
    80001676:	650a                	ld	a0,128(sp)
    80001678:	4605                	li	a2,1
    8000167a:	0cc103a3          	sb	a2,199(sp)
    8000167e:	952e                	add	a0,a0,a1
    80001680:	ecaa                	sd	a0,88(sp)
    80001682:	02b56063          	bltu	a0,a1,800016a2 <_ZN3sos14page_allocator5alloc17h5af4518a8a250dbaE+0x10e>
    80001686:	a009                	j	80001688 <_ZN3sos14page_allocator5alloc17h5af4518a8a250dbaE+0xf4>
    80001688:	6566                	ld	a0,88(sp)
    8000168a:	7586                	ld	a1,96(sp)
    8000168c:	e5ae                	sd	a1,200(sp)
    8000168e:	e9aa                	sd	a0,208(sp)
    80001690:	652e                	ld	a0,200(sp)
    80001692:	65ce                	ld	a1,208(sp)
    80001694:	00000097          	auipc	ra,0x0
    80001698:	7e0080e7          	jalr	2016(ra) # 80001e74 <_ZN63_$LT$I$u20$as$u20$core..iter..traits..collect..IntoIterator$GT$9into_iter17h247736a8e622b520E>
    8000169c:	edaa                	sd	a0,216(sp)
    8000169e:	f1ae                	sd	a1,224(sp)
    800016a0:	a831                	j	800016bc <_ZN3sos14page_allocator5alloc17h5af4518a8a250dbaE+0x128>
    800016a2:	0001c517          	auipc	a0,0x1c
    800016a6:	d1e50513          	addi	a0,a0,-738 # 8001d3c0 <str.0>
    800016aa:	0001c597          	auipc	a1,0x1c
    800016ae:	e2658613          	addi	a2,a1,-474 # 8001d4d0 <$d.23>
    800016b2:	45f1                	li	a1,28
    800016b4:	0000a097          	auipc	ra,0xa
    800016b8:	19a080e7          	jalr	410(ra) # 8000b84e <_ZN4core9panicking5panic17hc1e537fd0d21a68dE>
    800016bc:	09a8                	addi	a0,sp,216
    800016be:	00000097          	auipc	ra,0x0
    800016c2:	7a2080e7          	jalr	1954(ra) # 80001e60 <_ZN4core4iter5range101_$LT$impl$u20$core..iter..traits..iterator..Iterator$u20$for$u20$core..ops..range..Range$LT$A$GT$$GT$4next17hdface09eb370ad0cE>
    800016c6:	f5aa                	sd	a0,232(sp)
    800016c8:	f9ae                	sd	a1,240(sp)
    800016ca:	752e                	ld	a0,232(sp)
    800016cc:	e519                	bnez	a0,800016da <_ZN3sos14page_allocator5alloc17h5af4518a8a250dbaE+0x146>
    800016ce:	a009                	j	800016d0 <_ZN3sos14page_allocator5alloc17h5af4518a8a250dbaE+0x13c>
    800016d0:	0c714503          	lbu	a0,199(sp)
    800016d4:	8905                	andi	a0,a0,1
    800016d6:	e115                	bnez	a0,800016fa <_ZN3sos14page_allocator5alloc17h5af4518a8a250dbaE+0x166>
    800016d8:	b7b1                	j	80001624 <_ZN3sos14page_allocator5alloc17h5af4518a8a250dbaE+0x90>
    800016da:	7526                	ld	a0,104(sp)
    800016dc:	75ce                	ld	a1,240(sp)
    800016de:	feae                	sd	a1,376(sp)
    800016e0:	e7aa                	sd	a0,456(sp)
    800016e2:	ebae                	sd	a1,464(sp)
    800016e4:	952e                	add	a0,a0,a1
    800016e6:	00000097          	auipc	ra,0x0
    800016ea:	d1a080e7          	jalr	-742(ra) # 80001400 <_ZN3sos14page_allocator4Page5taken17h4ede945fb6e8ee17E>
    800016ee:	d579                	beqz	a0,800016bc <_ZN3sos14page_allocator5alloc17h5af4518a8a250dbaE+0x128>
    800016f0:	a009                	j	800016f2 <_ZN3sos14page_allocator5alloc17h5af4518a8a250dbaE+0x15e>
    800016f2:	4501                	li	a0,0
    800016f4:	0ca103a3          	sb	a0,199(sp)
    800016f8:	bfe1                	j	800016d0 <_ZN3sos14page_allocator5alloc17h5af4518a8a250dbaE+0x13c>
    800016fa:	7586                	ld	a1,96(sp)
    800016fc:	650a                	ld	a0,128(sp)
    800016fe:	952e                	add	a0,a0,a1
    80001700:	e8aa                	sd	a0,80(sp)
    80001702:	02b56063          	bltu	a0,a1,80001722 <_ZN3sos14page_allocator5alloc17h5af4518a8a250dbaE+0x18e>
    80001706:	a009                	j	80001708 <_ZN3sos14page_allocator5alloc17h5af4518a8a250dbaE+0x174>
    80001708:	6546                	ld	a0,80(sp)
    8000170a:	7586                	ld	a1,96(sp)
    8000170c:	fdae                	sd	a1,248(sp)
    8000170e:	e22a                	sd	a0,256(sp)
    80001710:	756e                	ld	a0,248(sp)
    80001712:	6592                	ld	a1,256(sp)
    80001714:	00000097          	auipc	ra,0x0
    80001718:	760080e7          	jalr	1888(ra) # 80001e74 <_ZN63_$LT$I$u20$as$u20$core..iter..traits..collect..IntoIterator$GT$9into_iter17h247736a8e622b520E>
    8000171c:	e62a                	sd	a0,264(sp)
    8000171e:	ea2e                	sd	a1,272(sp)
    80001720:	a831                	j	8000173c <_ZN3sos14page_allocator5alloc17h5af4518a8a250dbaE+0x1a8>
    80001722:	0001c517          	auipc	a0,0x1c
    80001726:	c9e50513          	addi	a0,a0,-866 # 8001d3c0 <str.0>
    8000172a:	0001c597          	auipc	a1,0x1c
    8000172e:	dbe58613          	addi	a2,a1,-578 # 8001d4e8 <$d.24>
    80001732:	45f1                	li	a1,28
    80001734:	0000a097          	auipc	ra,0xa
    80001738:	11a080e7          	jalr	282(ra) # 8000b84e <_ZN4core9panicking5panic17hc1e537fd0d21a68dE>
    8000173c:	0228                	addi	a0,sp,264
    8000173e:	00000097          	auipc	ra,0x0
    80001742:	722080e7          	jalr	1826(ra) # 80001e60 <_ZN4core4iter5range101_$LT$impl$u20$core..iter..traits..iterator..Iterator$u20$for$u20$core..ops..range..Range$LT$A$GT$$GT$4next17hdface09eb370ad0cE>
    80001746:	ee2a                	sd	a0,280(sp)
    80001748:	f22e                	sd	a1,288(sp)
    8000174a:	6572                	ld	a0,280(sp)
    8000174c:	e909                	bnez	a0,8000175e <_ZN3sos14page_allocator5alloc17h5af4518a8a250dbaE+0x1ca>
    8000174e:	a009                	j	80001750 <_ZN3sos14page_allocator5alloc17h5af4518a8a250dbaE+0x1bc>
    80001750:	7586                	ld	a1,96(sp)
    80001752:	650a                	ld	a0,128(sp)
    80001754:	952e                	add	a0,a0,a1
    80001756:	e4aa                	sd	a0,72(sp)
    80001758:	02b56a63          	bltu	a0,a1,8000178c <_ZN3sos14page_allocator5alloc17h5af4518a8a250dbaE+0x1f8>
    8000175c:	a015                	j	80001780 <_ZN3sos14page_allocator5alloc17h5af4518a8a250dbaE+0x1ec>
    8000175e:	7526                	ld	a0,104(sp)
    80001760:	7592                	ld	a1,288(sp)
    80001762:	eb2e                	sd	a1,400(sp)
    80001764:	f72a                	sd	a0,424(sp)
    80001766:	fb2e                	sd	a1,432(sp)
    80001768:	952e                	add	a0,a0,a1
    8000176a:	0001c597          	auipc	a1,0x1c
    8000176e:	c0f58593          	addi	a1,a1,-1009 # 8001d379 <_ZN3sos14page_allocator10TAKEN_FLAG17h64d7676c79774804E>
    80001772:	0005c583          	lbu	a1,0(a1)
    80001776:	00000097          	auipc	ra,0x0
    8000177a:	ca8080e7          	jalr	-856(ra) # 8000141e <_ZN3sos14page_allocator4Page8set_flag17h62742c0ed2f1faf8E>
    8000177e:	bf7d                	j	8000173c <_ZN3sos14page_allocator5alloc17h5af4518a8a250dbaE+0x1a8>
    80001780:	6526                	ld	a0,72(sp)
    80001782:	fff50593          	addi	a1,a0,-1
    80001786:	e0ae                	sd	a1,64(sp)
    80001788:	c12d                	beqz	a0,800017ea <_ZN3sos14page_allocator5alloc17h5af4518a8a250dbaE+0x256>
    8000178a:	a831                	j	800017a6 <_ZN3sos14page_allocator5alloc17h5af4518a8a250dbaE+0x212>
    8000178c:	0001c517          	auipc	a0,0x1c
    80001790:	c3450513          	addi	a0,a0,-972 # 8001d3c0 <str.0>
    80001794:	0001c597          	auipc	a1,0x1c
    80001798:	d6c58613          	addi	a2,a1,-660 # 8001d500 <$d.25>
    8000179c:	45f1                	li	a1,28
    8000179e:	0000a097          	auipc	ra,0xa
    800017a2:	0b0080e7          	jalr	176(ra) # 8000b84e <_ZN4core9panicking5panic17hc1e537fd0d21a68dE>
    800017a6:	7526                	ld	a0,104(sp)
    800017a8:	6586                	ld	a1,64(sp)
    800017aa:	ff2a                	sd	a0,440(sp)
    800017ac:	e3ae                	sd	a1,448(sp)
    800017ae:	952e                	add	a0,a0,a1
    800017b0:	0001c597          	auipc	a1,0x1c
    800017b4:	bca58593          	addi	a1,a1,-1078 # 8001d37a <_ZN3sos14page_allocator9LAST_FLAG17h0218a097910e8f95E>
    800017b8:	0005c583          	lbu	a1,0(a1)
    800017bc:	00000097          	auipc	ra,0x0
    800017c0:	c62080e7          	jalr	-926(ra) # 8000141e <_ZN3sos14page_allocator4Page8set_flag17h62742c0ed2f1faf8E>
    800017c4:	7586                	ld	a1,96(sp)
    800017c6:	00030517          	auipc	a0,0x30
    800017ca:	9fa50513          	addi	a0,a0,-1542 # 800311c0 <_ZN3sos14page_allocator11ALLOC_START17h109755aa89b4e5bbE>
    800017ce:	6108                	ld	a0,0(a0)
    800017d0:	f82a                	sd	a0,48(sp)
    800017d2:	0001c517          	auipc	a0,0x1c
    800017d6:	bae50513          	addi	a0,a0,-1106 # 8001d380 <_ZN3sos14page_allocator9PAGE_SIZE17hedbb036b917a75fdE>
    800017da:	6108                	ld	a0,0(a0)
    800017dc:	02b50633          	mul	a2,a0,a1
    800017e0:	fc32                	sd	a2,56(sp)
    800017e2:	02b53533          	mulhu	a0,a0,a1
    800017e6:	e51d                	bnez	a0,80001814 <_ZN3sos14page_allocator5alloc17h5af4518a8a250dbaE+0x280>
    800017e8:	a839                	j	80001806 <_ZN3sos14page_allocator5alloc17h5af4518a8a250dbaE+0x272>
    800017ea:	0001c517          	auipc	a0,0x1c
    800017ee:	d3650513          	addi	a0,a0,-714 # 8001d520 <str.3>
    800017f2:	0001c597          	auipc	a1,0x1c
    800017f6:	d0e58613          	addi	a2,a1,-754 # 8001d500 <$d.25>
    800017fa:	02100593          	li	a1,33
    800017fe:	0000a097          	auipc	ra,0xa
    80001802:	050080e7          	jalr	80(ra) # 8000b84e <_ZN4core9panicking5panic17hc1e537fd0d21a68dE>
    80001806:	75c2                	ld	a1,48(sp)
    80001808:	7562                	ld	a0,56(sp)
    8000180a:	952e                	add	a0,a0,a1
    8000180c:	f42a                	sd	a0,40(sp)
    8000180e:	04b56263          	bltu	a0,a1,80001852 <_ZN3sos14page_allocator5alloc17h5af4518a8a250dbaE+0x2be>
    80001812:	a839                	j	80001830 <_ZN3sos14page_allocator5alloc17h5af4518a8a250dbaE+0x29c>
    80001814:	0001c517          	auipc	a0,0x1c
    80001818:	c2c50513          	addi	a0,a0,-980 # 8001d440 <str.2>
    8000181c:	0001c597          	auipc	a1,0x1c
    80001820:	d2c58613          	addi	a2,a1,-724 # 8001d548 <$d.27>
    80001824:	02100593          	li	a1,33
    80001828:	0000a097          	auipc	ra,0xa
    8000182c:	026080e7          	jalr	38(ra) # 8000b84e <_ZN4core9panicking5panic17hc1e537fd0d21a68dE>
    80001830:	658a                	ld	a1,128(sp)
    80001832:	7522                	ld	a0,40(sp)
    80001834:	862a                	mv	a2,a0
    80001836:	ec32                	sd	a2,24(sp)
    80001838:	e32a                	sd	a0,384(sp)
    8000183a:	0001c517          	auipc	a0,0x1c
    8000183e:	b4650513          	addi	a0,a0,-1210 # 8001d380 <_ZN3sos14page_allocator9PAGE_SIZE17hedbb036b917a75fdE>
    80001842:	6108                	ld	a0,0(a0)
    80001844:	02b50633          	mul	a2,a0,a1
    80001848:	f032                	sd	a2,32(sp)
    8000184a:	02b53533          	mulhu	a0,a0,a1
    8000184e:	ed0d                	bnez	a0,80001888 <_ZN3sos14page_allocator5alloc17h5af4518a8a250dbaE+0x2f4>
    80001850:	a831                	j	8000186c <_ZN3sos14page_allocator5alloc17h5af4518a8a250dbaE+0x2d8>
    80001852:	0001c517          	auipc	a0,0x1c
    80001856:	b6e50513          	addi	a0,a0,-1170 # 8001d3c0 <str.0>
    8000185a:	0001c597          	auipc	a1,0x1c
    8000185e:	d0658613          	addi	a2,a1,-762 # 8001d560 <$d.28>
    80001862:	45f1                	li	a1,28
    80001864:	0000a097          	auipc	ra,0xa
    80001868:	fea080e7          	jalr	-22(ra) # 8000b84e <_ZN4core9panicking5panic17hc1e537fd0d21a68dE>
    8000186c:	7502                	ld	a0,32(sp)
    8000186e:	810d                	srli	a0,a0,0x3
    80001870:	4581                	li	a1,0
    80001872:	f62e                	sd	a1,296(sp)
    80001874:	fa2a                	sd	a0,304(sp)
    80001876:	7532                	ld	a0,296(sp)
    80001878:	75d2                	ld	a1,304(sp)
    8000187a:	00000097          	auipc	ra,0x0
    8000187e:	5fa080e7          	jalr	1530(ra) # 80001e74 <_ZN63_$LT$I$u20$as$u20$core..iter..traits..collect..IntoIterator$GT$9into_iter17h247736a8e622b520E>
    80001882:	fe2a                	sd	a0,312(sp)
    80001884:	e2ae                	sd	a1,320(sp)
    80001886:	a839                	j	800018a4 <_ZN3sos14page_allocator5alloc17h5af4518a8a250dbaE+0x310>
    80001888:	0001c517          	auipc	a0,0x1c
    8000188c:	bb850513          	addi	a0,a0,-1096 # 8001d440 <str.2>
    80001890:	0001c597          	auipc	a1,0x1c
    80001894:	ce858613          	addi	a2,a1,-792 # 8001d578 <$d.29>
    80001898:	02100593          	li	a1,33
    8000189c:	0000a097          	auipc	ra,0xa
    800018a0:	fb2080e7          	jalr	-78(ra) # 8000b84e <_ZN4core9panicking5panic17hc1e537fd0d21a68dE>
    800018a4:	1a28                	addi	a0,sp,312
    800018a6:	00000097          	auipc	ra,0x0
    800018aa:	5ba080e7          	jalr	1466(ra) # 80001e60 <_ZN4core4iter5range101_$LT$impl$u20$core..iter..traits..iterator..Iterator$u20$for$u20$core..ops..range..Range$LT$A$GT$$GT$4next17hdface09eb370ad0cE>
    800018ae:	e6aa                	sd	a0,328(sp)
    800018b0:	eaae                	sd	a1,336(sp)
    800018b2:	6536                	ld	a0,328(sp)
    800018b4:	e509                	bnez	a0,800018be <_ZN3sos14page_allocator5alloc17h5af4518a8a250dbaE+0x32a>
    800018b6:	a009                	j	800018b8 <_ZN3sos14page_allocator5alloc17h5af4518a8a250dbaE+0x324>
    800018b8:	6562                	ld	a0,24(sp)
    800018ba:	e52a                	sd	a0,136(sp)
    800018bc:	b375                	j	80001668 <_ZN3sos14page_allocator5alloc17h5af4518a8a250dbaE+0xd4>
    800018be:	6562                	ld	a0,24(sp)
    800018c0:	65d6                	ld	a1,336(sp)
    800018c2:	e72e                	sd	a1,392(sp)
    800018c4:	ef2a                	sd	a0,408(sp)
    800018c6:	f32e                	sd	a1,416(sp)
    800018c8:	058e                	slli	a1,a1,0x3
    800018ca:	952e                	add	a0,a0,a1
    800018cc:	e42a                	sd	a0,8(sp)
    800018ce:	85aa                	mv	a1,a0
    800018d0:	e82e                	sd	a1,16(sp)
    800018d2:	891d                	andi	a0,a0,7
    800018d4:	e511                	bnez	a0,800018e0 <_ZN3sos14page_allocator5alloc17h5af4518a8a250dbaE+0x34c>
    800018d6:	a009                	j	800018d8 <_ZN3sos14page_allocator5alloc17h5af4518a8a250dbaE+0x344>
    800018d8:	65c2                	ld	a1,16(sp)
    800018da:	4501                	li	a0,0
    800018dc:	e188                	sd	a0,0(a1)
    800018de:	b7d9                	j	800018a4 <_ZN3sos14page_allocator5alloc17h5af4518a8a250dbaE+0x310>
    800018e0:	65a2                	ld	a1,8(sp)
    800018e2:	0001c517          	auipc	a0,0x1c
    800018e6:	cae50613          	addi	a2,a0,-850 # 8001d590 <$d.30>
    800018ea:	4521                	li	a0,8
    800018ec:	0000a097          	auipc	ra,0xa
    800018f0:	0f2080e7          	jalr	242(ra) # 8000b9de <_ZN4core9panicking36panic_misaligned_pointer_dereference17hbf5e262f50d98629E>

00000000800018f4 <_ZN4core3ptr9const_ptr33_$LT$impl$u20$$BP$const$u20$T$GT$13read_volatile17h1e77745b73e08741E>:
    800018f4:	1101                	addi	sp,sp,-32
    800018f6:	ec06                	sd	ra,24(sp)
    800018f8:	e02a                	sd	a0,0(sp)
    800018fa:	e42a                	sd	a0,8(sp)
    800018fc:	a009                	j	800018fe <_ZN4core3ptr9const_ptr33_$LT$impl$u20$$BP$const$u20$T$GT$13read_volatile17h1e77745b73e08741E+0xa>
    800018fe:	6502                	ld	a0,0(sp)
    80001900:	4591                	li	a1,4
    80001902:	00000097          	auipc	ra,0x0
    80001906:	20e080e7          	jalr	526(ra) # 80001b10 <_ZN4core3ptr13read_volatile18precondition_check17h089078e0ad942a78E>
    8000190a:	a009                	j	8000190c <_ZN4core3ptr9const_ptr33_$LT$impl$u20$$BP$const$u20$T$GT$13read_volatile17h1e77745b73e08741E+0x18>
    8000190c:	6502                	ld	a0,0(sp)
    8000190e:	4108                	lw	a0,0(a0)
    80001910:	ca2a                	sw	a0,20(sp)
    80001912:	4552                	lw	a0,20(sp)
    80001914:	60e2                	ld	ra,24(sp)
    80001916:	6105                	addi	sp,sp,32
    80001918:	8082                	ret

000000008000191a <_ZN52_$LT$sos..uart..Uart$u20$as$u20$core..fmt..Write$GT$9write_str17h5d2a4b4ca9c6d311E>:
    8000191a:	711d                	addi	sp,sp,-96
    8000191c:	ec86                	sd	ra,88(sp)
    8000191e:	e032                	sd	a2,0(sp)
    80001920:	862e                	mv	a2,a1
    80001922:	6582                	ld	a1,0(sp)
    80001924:	e432                	sd	a2,8(sp)
    80001926:	862a                	mv	a2,a0
    80001928:	6522                	ld	a0,8(sp)
    8000192a:	e832                	sd	a2,16(sp)
    8000192c:	fc32                	sd	a2,56(sp)
    8000192e:	e0aa                	sd	a0,64(sp)
    80001930:	e4ae                	sd	a1,72(sp)
    80001932:	0001a097          	auipc	ra,0x1a
    80001936:	e1c080e7          	jalr	-484(ra) # 8001b74e <_ZN4core3str21_$LT$impl$u20$str$GT$5bytes17he99e3172d66dedeaE>
    8000193a:	00000097          	auipc	ra,0x0
    8000193e:	450080e7          	jalr	1104(ra) # 80001d8a <_ZN63_$LT$I$u20$as$u20$core..iter..traits..collect..IntoIterator$GT$9into_iter17h2f80583c88ccb5a1E>
    80001942:	f02a                	sd	a0,32(sp)
    80001944:	f42e                	sd	a1,40(sp)
    80001946:	a009                	j	80001948 <_ZN52_$LT$sos..uart..Uart$u20$as$u20$core..fmt..Write$GT$9write_str17h5d2a4b4ca9c6d311E+0x2e>
    80001948:	1008                	addi	a0,sp,32
    8000194a:	0001a097          	auipc	ra,0x1a
    8000194e:	df0080e7          	jalr	-528(ra) # 8001b73a <_ZN81_$LT$core..str..iter..Bytes$u20$as$u20$core..iter..traits..iterator..Iterator$GT$4next17hdaec049922d19695E>
    80001952:	8905                	andi	a0,a0,1
    80001954:	02a10b23          	sb	a0,54(sp)
    80001958:	02b10ba3          	sb	a1,55(sp)
    8000195c:	03614503          	lbu	a0,54(sp)
    80001960:	8905                	andi	a0,a0,1
    80001962:	e911                	bnez	a0,80001976 <_ZN52_$LT$sos..uart..Uart$u20$as$u20$core..fmt..Write$GT$9write_str17h5d2a4b4ca9c6d311E+0x5c>
    80001964:	a009                	j	80001966 <_ZN52_$LT$sos..uart..Uart$u20$as$u20$core..fmt..Write$GT$9write_str17h5d2a4b4ca9c6d311E+0x4c>
    80001966:	4501                	li	a0,0
    80001968:	00a10fa3          	sb	a0,31(sp)
    8000196c:	01f14503          	lbu	a0,31(sp)
    80001970:	60e6                	ld	ra,88(sp)
    80001972:	6125                	addi	sp,sp,96
    80001974:	8082                	ret
    80001976:	6542                	ld	a0,16(sp)
    80001978:	03714583          	lbu	a1,55(sp)
    8000197c:	04b10ba3          	sb	a1,87(sp)
    80001980:	00000097          	auipc	ra,0x0
    80001984:	150080e7          	jalr	336(ra) # 80001ad0 <_ZN3sos4uart4Uart5write17h91d50125df2bb810E>
    80001988:	b7c1                	j	80001948 <_ZN52_$LT$sos..uart..Uart$u20$as$u20$core..fmt..Write$GT$9write_str17h5d2a4b4ca9c6d311E+0x2e>

000000008000198a <_ZN3sos4uart4Uart3get17hd64bacb7053f817fE>:
    8000198a:	1141                	addi	sp,sp,-16
    8000198c:	10000537          	lui	a0,0x10000
    80001990:	e42a                	sd	a0,8(sp)
    80001992:	6522                	ld	a0,8(sp)
    80001994:	0141                	addi	sp,sp,16
    80001996:	8082                	ret

0000000080001998 <_ZN3sos4uart4Uart12start_driver17h7872f0c60582c294E>:
    80001998:	7171                	addi	sp,sp,-176
    8000199a:	f506                	sd	ra,168(sp)
    8000199c:	f02a                	sd	a0,32(sp)
    8000199e:	fc2a                	sd	a0,56(sp)
    800019a0:	e0aa                	sd	a0,64(sp)
    800019a2:	0001c597          	auipc	a1,0x1c
    800019a6:	c2658593          	addi	a1,a1,-986 # 8001d5c8 <_ZN3sos4uart28LINE_CONTROL_REGISTER_OFFSET17h1b31d94c8b8a9763E>
    800019aa:	618c                	ld	a1,0(a1)
    800019ac:	ed2a                	sd	a0,152(sp)
    800019ae:	f12e                	sd	a1,160(sp)
    800019b0:	952e                	add	a0,a0,a1
    800019b2:	e42a                	sd	a0,8(sp)
    800019b4:	f4aa                	sd	a0,104(sp)
    800019b6:	4589                	li	a1,2
    800019b8:	e82e                	sd	a1,16(sp)
    800019ba:	06b10ba3          	sb	a1,119(sp)
    800019be:	4585                	li	a1,1
    800019c0:	f82e                	sd	a1,48(sp)
    800019c2:	00000097          	auipc	ra,0x0
    800019c6:	17c080e7          	jalr	380(ra) # 80001b3e <_ZN4core3ptr14write_volatile18precondition_check17h33610d963b4ef2dfE>
    800019ca:	66a2                	ld	a3,8(sp)
    800019cc:	6642                	ld	a2,16(sp)
    800019ce:	7502                	ld	a0,32(sp)
    800019d0:	75c2                	ld	a1,48(sp)
    800019d2:	00c68023          	sb	a2,0(a3)
    800019d6:	0001c617          	auipc	a2,0x1c
    800019da:	bea60613          	addi	a2,a2,-1046 # 8001d5c0 <_ZN3sos4uart28FIFO_CONTROL_REGISTER_OFFSET17hd423c80401f3c3e6E>
    800019de:	6210                	ld	a2,0(a2)
    800019e0:	e52a                	sd	a0,136(sp)
    800019e2:	e932                	sd	a2,144(sp)
    800019e4:	9532                	add	a0,a0,a2
    800019e6:	ec2a                	sd	a0,24(sp)
    800019e8:	ecaa                	sd	a0,88(sp)
    800019ea:	06b103a3          	sb	a1,103(sp)
    800019ee:	00000097          	auipc	ra,0x0
    800019f2:	150080e7          	jalr	336(ra) # 80001b3e <_ZN4core3ptr14write_volatile18precondition_check17h33610d963b4ef2dfE>
    800019f6:	6662                	ld	a2,24(sp)
    800019f8:	7502                	ld	a0,32(sp)
    800019fa:	75c2                	ld	a1,48(sp)
    800019fc:	00b60023          	sb	a1,0(a2)
    80001a00:	0001c617          	auipc	a2,0x1c
    80001a04:	bb860613          	addi	a2,a2,-1096 # 8001d5b8 <_ZN3sos4uart32INTERRUPT_ENABLE_REGISTER_OFFSET17h80b751aec4568534E>
    80001a08:	6210                	ld	a2,0(a2)
    80001a0a:	fcaa                	sd	a0,120(sp)
    80001a0c:	e132                	sd	a2,128(sp)
    80001a0e:	9532                	add	a0,a0,a2
    80001a10:	f42a                	sd	a0,40(sp)
    80001a12:	e4aa                	sd	a0,72(sp)
    80001a14:	04b10ba3          	sb	a1,87(sp)
    80001a18:	00000097          	auipc	ra,0x0
    80001a1c:	126080e7          	jalr	294(ra) # 80001b3e <_ZN4core3ptr14write_volatile18precondition_check17h33610d963b4ef2dfE>
    80001a20:	75a2                	ld	a1,40(sp)
    80001a22:	7542                	ld	a0,48(sp)
    80001a24:	00a58023          	sb	a0,0(a1)
    80001a28:	4501                	li	a0,0
    80001a2a:	70aa                	ld	ra,168(sp)
    80001a2c:	614d                	addi	sp,sp,176
    80001a2e:	8082                	ret

0000000080001a30 <_ZN3sos4uart4Uart4read17h1ff2e23b05d10cfdE>:
    80001a30:	7175                	addi	sp,sp,-144
    80001a32:	e506                	sd	ra,136(sp)
    80001a34:	f42a                	sd	a0,40(sp)
    80001a36:	6108                	ld	a0,0(a0)
    80001a38:	e82a                	sd	a0,16(sp)
    80001a3a:	f82a                	sd	a0,48(sp)
    80001a3c:	0001c597          	auipc	a1,0x1c
    80001a40:	b9458593          	addi	a1,a1,-1132 # 8001d5d0 <_ZN3sos4uart27LINE_STATUS_REGISTER_OFFSET17h2fcf9b97a46e6af6E>
    80001a44:	618c                	ld	a1,0(a1)
    80001a46:	fcaa                	sd	a0,120(sp)
    80001a48:	e12e                	sd	a1,128(sp)
    80001a4a:	952e                	add	a0,a0,a1
    80001a4c:	ec2a                	sd	a0,24(sp)
    80001a4e:	e8aa                	sd	a0,80(sp)
    80001a50:	ecaa                	sd	a0,88(sp)
    80001a52:	4585                	li	a1,1
    80001a54:	00000097          	auipc	ra,0x0
    80001a58:	0bc080e7          	jalr	188(ra) # 80001b10 <_ZN4core3ptr13read_volatile18precondition_check17h089078e0ad942a78E>
    80001a5c:	6562                	ld	a0,24(sp)
    80001a5e:	00054503          	lbu	a0,0(a0) # 10000000 <_heap_size+0x80b11e8>
    80001a62:	06a103a3          	sb	a0,103(sp)
    80001a66:	06714503          	lbu	a0,103(sp)
    80001a6a:	0001c597          	auipc	a1,0x1c
    80001a6e:	b6e58593          	addi	a1,a1,-1170 # 8001d5d8 <_ZN3sos4uart15DATA_READY_MASK17hef52126a98d087e1E>
    80001a72:	0005c583          	lbu	a1,0(a1)
    80001a76:	8d6d                	and	a0,a0,a1
    80001a78:	e511                	bnez	a0,80001a84 <_ZN3sos4uart4Uart4read17h1ff2e23b05d10cfdE+0x54>
    80001a7a:	a009                	j	80001a7c <_ZN3sos4uart4Uart4read17h1ff2e23b05d10cfdE+0x4c>
    80001a7c:	4501                	li	a0,0
    80001a7e:	02a10323          	sb	a0,38(sp)
    80001a82:	a081                	j	80001ac2 <_ZN3sos4uart4Uart4read17h1ff2e23b05d10cfdE+0x92>
    80001a84:	6542                	ld	a0,16(sp)
    80001a86:	0001c597          	auipc	a1,0x1c
    80001a8a:	b2258593          	addi	a1,a1,-1246 # 8001d5a8 <_ZN3sos4uart15RECEIVER_OFFSET17hd30071cffeabaf59E>
    80001a8e:	618c                	ld	a1,0(a1)
    80001a90:	f4aa                	sd	a0,104(sp)
    80001a92:	f8ae                	sd	a1,112(sp)
    80001a94:	952e                	add	a0,a0,a1
    80001a96:	e02a                	sd	a0,0(sp)
    80001a98:	fc2a                	sd	a0,56(sp)
    80001a9a:	e0aa                	sd	a0,64(sp)
    80001a9c:	4585                	li	a1,1
    80001a9e:	e42e                	sd	a1,8(sp)
    80001aa0:	00000097          	auipc	ra,0x0
    80001aa4:	070080e7          	jalr	112(ra) # 80001b10 <_ZN4core3ptr13read_volatile18precondition_check17h089078e0ad942a78E>
    80001aa8:	6582                	ld	a1,0(sp)
    80001aaa:	6522                	ld	a0,8(sp)
    80001aac:	0005c583          	lbu	a1,0(a1)
    80001ab0:	04b107a3          	sb	a1,79(sp)
    80001ab4:	04f14583          	lbu	a1,79(sp)
    80001ab8:	02b103a3          	sb	a1,39(sp)
    80001abc:	02a10323          	sb	a0,38(sp)
    80001ac0:	a009                	j	80001ac2 <_ZN3sos4uart4Uart4read17h1ff2e23b05d10cfdE+0x92>
    80001ac2:	02614503          	lbu	a0,38(sp)
    80001ac6:	02714583          	lbu	a1,39(sp)
    80001aca:	60aa                	ld	ra,136(sp)
    80001acc:	6149                	addi	sp,sp,144
    80001ace:	8082                	ret

0000000080001ad0 <_ZN3sos4uart4Uart5write17h91d50125df2bb810E>:
    80001ad0:	715d                	addi	sp,sp,-80
    80001ad2:	e486                	sd	ra,72(sp)
    80001ad4:	e42e                	sd	a1,8(sp)
    80001ad6:	e82a                	sd	a0,16(sp)
    80001ad8:	00b10fa3          	sb	a1,31(sp)
    80001adc:	6108                	ld	a0,0(a0)
    80001ade:	f02a                	sd	a0,32(sp)
    80001ae0:	0001c617          	auipc	a2,0x1c
    80001ae4:	ad060613          	addi	a2,a2,-1328 # 8001d5b0 <_ZN3sos4uart18TRANSMITTER_OFFSET17h9467125c58a9c376E>
    80001ae8:	6210                	ld	a2,0(a2)
    80001aea:	fc2a                	sd	a0,56(sp)
    80001aec:	e0b2                	sd	a2,64(sp)
    80001aee:	9532                	add	a0,a0,a2
    80001af0:	e02a                	sd	a0,0(sp)
    80001af2:	f42a                	sd	a0,40(sp)
    80001af4:	02b10ba3          	sb	a1,55(sp)
    80001af8:	4585                	li	a1,1
    80001afa:	00000097          	auipc	ra,0x0
    80001afe:	044080e7          	jalr	68(ra) # 80001b3e <_ZN4core3ptr14write_volatile18precondition_check17h33610d963b4ef2dfE>
    80001b02:	6502                	ld	a0,0(sp)
    80001b04:	65a2                	ld	a1,8(sp)
    80001b06:	00b50023          	sb	a1,0(a0)
    80001b0a:	60a6                	ld	ra,72(sp)
    80001b0c:	6161                	addi	sp,sp,80
    80001b0e:	8082                	ret

0000000080001b10 <_ZN4core3ptr13read_volatile18precondition_check17h089078e0ad942a78E>:
    80001b10:	1101                	addi	sp,sp,-32
    80001b12:	ec06                	sd	ra,24(sp)
    80001b14:	e42a                	sd	a0,8(sp)
    80001b16:	e82e                	sd	a1,16(sp)
    80001b18:	0001a097          	auipc	ra,0x1a
    80001b1c:	f8c080e7          	jalr	-116(ra) # 8001baa4 <_ZN4core10intrinsics23is_aligned_and_not_null17h6bbf6b15bf6feceeE>
    80001b20:	ed01                	bnez	a0,80001b38 <_ZN4core3ptr13read_volatile18precondition_check17h089078e0ad942a78E+0x28>
    80001b22:	a009                	j	80001b24 <_ZN4core3ptr13read_volatile18precondition_check17h089078e0ad942a78E+0x14>
    80001b24:	0001c517          	auipc	a0,0x1c
    80001b28:	ac450513          	addi	a0,a0,-1340 # 8001d5e8 <$d.2>
    80001b2c:	06e00593          	li	a1,110
    80001b30:	0000a097          	auipc	ra,0xa
    80001b34:	d5e080e7          	jalr	-674(ra) # 8000b88e <_ZN4core9panicking14panic_nounwind17ha1222a1d1fe12c3dE>
    80001b38:	60e2                	ld	ra,24(sp)
    80001b3a:	6105                	addi	sp,sp,32
    80001b3c:	8082                	ret

0000000080001b3e <_ZN4core3ptr14write_volatile18precondition_check17h33610d963b4ef2dfE>:
    80001b3e:	1101                	addi	sp,sp,-32
    80001b40:	ec06                	sd	ra,24(sp)
    80001b42:	e42a                	sd	a0,8(sp)
    80001b44:	e82e                	sd	a1,16(sp)
    80001b46:	0001a097          	auipc	ra,0x1a
    80001b4a:	f5e080e7          	jalr	-162(ra) # 8001baa4 <_ZN4core10intrinsics23is_aligned_and_not_null17h6bbf6b15bf6feceeE>
    80001b4e:	ed01                	bnez	a0,80001b66 <_ZN4core3ptr14write_volatile18precondition_check17h33610d963b4ef2dfE+0x28>
    80001b50:	a009                	j	80001b52 <_ZN4core3ptr14write_volatile18precondition_check17h33610d963b4ef2dfE+0x14>
    80001b52:	0001c517          	auipc	a0,0x1c
    80001b56:	b0450513          	addi	a0,a0,-1276 # 8001d656 <$d.3>
    80001b5a:	06f00593          	li	a1,111
    80001b5e:	0000a097          	auipc	ra,0xa
    80001b62:	d30080e7          	jalr	-720(ra) # 8000b88e <_ZN4core9panicking14panic_nounwind17ha1222a1d1fe12c3dE>
    80001b66:	60e2                	ld	ra,24(sp)
    80001b68:	6105                	addi	sp,sp,32
    80001b6a:	8082                	ret

0000000080001b6c <_ZN44_$LT$$RF$T$u20$as$u20$core..fmt..Display$GT$3fmt17h3cb2e2124f7ca5c3E>:
    80001b6c:	1101                	addi	sp,sp,-32
    80001b6e:	ec06                	sd	ra,24(sp)
    80001b70:	862e                	mv	a2,a1
    80001b72:	85aa                	mv	a1,a0
    80001b74:	e42e                	sd	a1,8(sp)
    80001b76:	e832                	sd	a2,16(sp)
    80001b78:	6188                	ld	a0,0(a1)
    80001b7a:	658c                	ld	a1,8(a1)
    80001b7c:	0000e097          	auipc	ra,0xe
    80001b80:	6a0080e7          	jalr	1696(ra) # 8001021c <_ZN42_$LT$str$u20$as$u20$core..fmt..Display$GT$3fmt17hfd68488a18d28c5dE>
    80001b84:	60e2                	ld	ra,24(sp)
    80001b86:	6105                	addi	sp,sp,32
    80001b88:	8082                	ret

0000000080001b8a <_ZN44_$LT$$RF$T$u20$as$u20$core..fmt..Display$GT$3fmt17h785ab6a4a7fdf26cE>:
    80001b8a:	1101                	addi	sp,sp,-32
    80001b8c:	ec06                	sd	ra,24(sp)
    80001b8e:	e42a                	sd	a0,8(sp)
    80001b90:	e82e                	sd	a1,16(sp)
    80001b92:	6108                	ld	a0,0(a0)
    80001b94:	0000d097          	auipc	ra,0xd
    80001b98:	cbe080e7          	jalr	-834(ra) # 8000e852 <_ZN59_$LT$core..fmt..Arguments$u20$as$u20$core..fmt..Display$GT$3fmt17h98ac86ceed42de19E>
    80001b9c:	60e2                	ld	ra,24(sp)
    80001b9e:	6105                	addi	sp,sp,32
    80001ba0:	8082                	ret

0000000080001ba2 <_ZN3sos9scheduler4init17ha8762e9c514389b1E>:
    80001ba2:	1101                	addi	sp,sp,-32
    80001ba4:	ec06                	sd	ra,24(sp)
    80001ba6:	850a                	mv	a0,sp
    80001ba8:	00000097          	auipc	ra,0x0
    80001bac:	022080e7          	jalr	34(ra) # 80001bca <_ZN3sos9scheduler9Scheduler13new_scheduler17he5d4866bde7c593bE>
    80001bb0:	0002f517          	auipc	a0,0x2f
    80001bb4:	62050593          	addi	a1,a0,1568 # 800311d0 <_ZN3sos9scheduler9SCHEDULER17h4feafe7022c7564aE>
    80001bb8:	6542                	ld	a0,16(sp)
    80001bba:	e988                	sd	a0,16(a1)
    80001bbc:	6522                	ld	a0,8(sp)
    80001bbe:	e588                	sd	a0,8(a1)
    80001bc0:	6502                	ld	a0,0(sp)
    80001bc2:	e188                	sd	a0,0(a1)
    80001bc4:	60e2                	ld	ra,24(sp)
    80001bc6:	6105                	addi	sp,sp,32
    80001bc8:	8082                	ret

0000000080001bca <_ZN3sos9scheduler9Scheduler13new_scheduler17he5d4866bde7c593bE>:
    80001bca:	7179                	addi	sp,sp,-48
    80001bcc:	f406                	sd	ra,40(sp)
    80001bce:	e42a                	sd	a0,8(sp)
    80001bd0:	0001a517          	auipc	a0,0x1a
    80001bd4:	ebc50593          	addi	a1,a0,-324 # 8001ba8c <_ZN3sos7process8process117hfb1d2a0e6a40431fE>
    80001bd8:	0808                	addi	a0,sp,16
    80001bda:	0001a097          	auipc	ra,0x1a
    80001bde:	d76080e7          	jalr	-650(ra) # 8001b950 <_ZN3sos7process7Process11new_process17h6ffed16bc9473c1cE>
    80001be2:	65a2                	ld	a1,8(sp)
    80001be4:	7502                	ld	a0,32(sp)
    80001be6:	e988                	sd	a0,16(a1)
    80001be8:	6562                	ld	a0,24(sp)
    80001bea:	e588                	sd	a0,8(a1)
    80001bec:	6542                	ld	a0,16(sp)
    80001bee:	e188                	sd	a0,0(a1)
    80001bf0:	70a2                	ld	ra,40(sp)
    80001bf2:	6145                	addi	sp,sp,48
    80001bf4:	8082                	ret

0000000080001bf6 <_ZN3sos9scheduler9Scheduler4next17hb88db31319ee6969E>:
    80001bf6:	7135                	addi	sp,sp,-160
    80001bf8:	ed06                	sd	ra,152(sp)
    80001bfa:	e42a                	sd	a0,8(sp)
    80001bfc:	f8aa                	sd	a0,112(sp)
    80001bfe:	00000097          	auipc	ra,0x0
    80001c02:	d8c080e7          	jalr	-628(ra) # 8000198a <_ZN3sos4uart4Uart3get17hd64bacb7053f817fE>
    80001c06:	85aa                	mv	a1,a0
    80001c08:	6522                	ld	a0,8(sp)
    80001c0a:	f02e                	sd	a1,32(sp)
    80001c0c:	6108                	ld	a0,0(a0)
    80001c0e:	f4aa                	sd	a0,104(sp)
    80001c10:	10ac                	addi	a1,sp,104
    80001c12:	e52e                	sd	a1,136(sp)
    80001c14:	00017517          	auipc	a0,0x17
    80001c18:	c6c50513          	addi	a0,a0,-916 # 80018880 <_ZN4core3fmt3num3imp52_$LT$impl$u20$core..fmt..Display$u20$for$u20$u64$GT$3fmt17h79a3b66c3d7c6a6eE>
    80001c1c:	e92a                	sd	a0,144(sp)
    80001c1e:	fcae                	sd	a1,120(sp)
    80001c20:	e12a                	sd	a0,128(sp)
    80001c22:	75e6                	ld	a1,120(sp)
    80001c24:	650a                	ld	a0,128(sp)
    80001c26:	ecae                	sd	a1,88(sp)
    80001c28:	f0aa                	sd	a0,96(sp)
    80001c2a:	0001c517          	auipc	a0,0x1c
    80001c2e:	a9e50593          	addi	a1,a0,-1378 # 8001d6c8 <$d.5>
    80001c32:	1028                	addi	a0,sp,40
    80001c34:	e02a                	sd	a0,0(sp)
    80001c36:	4609                	li	a2,2
    80001c38:	08b4                	addi	a3,sp,88
    80001c3a:	4705                	li	a4,1
    80001c3c:	0001a097          	auipc	ra,0x1a
    80001c40:	c18080e7          	jalr	-1000(ra) # 8001b854 <_ZN4core3fmt9Arguments6new_v117h1284f79f6fe93eb5E>
    80001c44:	6582                	ld	a1,0(sp)
    80001c46:	1008                	addi	a0,sp,32
    80001c48:	00000097          	auipc	ra,0x0
    80001c4c:	05a080e7          	jalr	90(ra) # 80001ca2 <_ZN4core3fmt5Write9write_fmt17hcc37dab4e70c9deeE>
    80001c50:	65a2                	ld	a1,8(sp)
    80001c52:	6988                	ld	a0,16(a1)
    80001c54:	e82e                	sd	a1,16(sp)
    80001c56:	ec2a                	sd	a0,24(sp)
    80001c58:	6542                	ld	a0,16(sp)
    80001c5a:	65e2                	ld	a1,24(sp)
    80001c5c:	60ea                	ld	ra,152(sp)
    80001c5e:	610d                	addi	sp,sp,160
    80001c60:	8082                	ret

0000000080001c62 <_ZN4core3fmt5Write10write_char17hb549e1a710481b9dE>:
    80001c62:	711d                	addi	sp,sp,-96
    80001c64:	ec86                	sd	ra,88(sp)
    80001c66:	e42e                	sd	a1,8(sp)
    80001c68:	85aa                	mv	a1,a0
    80001c6a:	6522                	ld	a0,8(sp)
    80001c6c:	e82e                	sd	a1,16(sp)
    80001c6e:	f42e                	sd	a1,40(sp)
    80001c70:	da2a                	sw	a0,52(sp)
    80001c72:	4581                	li	a1,0
    80001c74:	d22e                	sw	a1,36(sp)
    80001c76:	104c                	addi	a1,sp,36
    80001c78:	fc2e                	sd	a1,56(sp)
    80001c7a:	4611                	li	a2,4
    80001c7c:	e0b2                	sd	a2,64(sp)
    80001c7e:	0001a097          	auipc	ra,0x1a
    80001c82:	fcc080e7          	jalr	-52(ra) # 8001bc4a <_ZN4core4char7methods15encode_utf8_raw17h69e2c70d1a41eeb0E>
    80001c86:	862a                	mv	a2,a0
    80001c88:	6542                	ld	a0,16(sp)
    80001c8a:	ec32                	sd	a2,24(sp)
    80001c8c:	862e                	mv	a2,a1
    80001c8e:	65e2                	ld	a1,24(sp)
    80001c90:	e4ae                	sd	a1,72(sp)
    80001c92:	e8b2                	sd	a2,80(sp)
    80001c94:	00000097          	auipc	ra,0x0
    80001c98:	c86080e7          	jalr	-890(ra) # 8000191a <_ZN52_$LT$sos..uart..Uart$u20$as$u20$core..fmt..Write$GT$9write_str17h5d2a4b4ca9c6d311E>
    80001c9c:	60e6                	ld	ra,88(sp)
    80001c9e:	6125                	addi	sp,sp,96
    80001ca0:	8082                	ret

0000000080001ca2 <_ZN4core3fmt5Write9write_fmt17hcc37dab4e70c9deeE>:
    80001ca2:	1141                	addi	sp,sp,-16
    80001ca4:	e406                	sd	ra,8(sp)
    80001ca6:	e02a                	sd	a0,0(sp)
    80001ca8:	00000097          	auipc	ra,0x0
    80001cac:	00e080e7          	jalr	14(ra) # 80001cb6 <_ZN75_$LT$$RF$mut$u20$W$u20$as$u20$core..fmt..Write..write_fmt..SpecWriteFmt$GT$14spec_write_fmt17h4bf935f97627a442E>
    80001cb0:	60a2                	ld	ra,8(sp)
    80001cb2:	0141                	addi	sp,sp,16
    80001cb4:	8082                	ret

0000000080001cb6 <_ZN75_$LT$$RF$mut$u20$W$u20$as$u20$core..fmt..Write..write_fmt..SpecWriteFmt$GT$14spec_write_fmt17h4bf935f97627a442E>:
    80001cb6:	7119                	addi	sp,sp,-128
    80001cb8:	fc86                	sd	ra,120(sp)
    80001cba:	e42e                	sd	a1,8(sp)
    80001cbc:	85aa                	mv	a1,a0
    80001cbe:	6522                	ld	a0,8(sp)
    80001cc0:	e82e                	sd	a1,16(sp)
    80001cc2:	f0ae                	sd	a1,96(sp)
    80001cc4:	0001a097          	auipc	ra,0x1a
    80001cc8:	ac0080e7          	jalr	-1344(ra) # 8001b784 <_ZN4core3fmt9Arguments12as_const_str17h1174626d8a576e02E>
    80001ccc:	f02a                	sd	a0,32(sp)
    80001cce:	f42e                	sd	a1,40(sp)
    80001cd0:	7502                	ld	a0,32(sp)
    80001cd2:	cd11                	beqz	a0,80001cee <_ZN75_$LT$$RF$mut$u20$W$u20$as$u20$core..fmt..Write..write_fmt..SpecWriteFmt$GT$14spec_write_fmt17h4bf935f97627a442E+0x38>
    80001cd4:	a009                	j	80001cd6 <_ZN75_$LT$$RF$mut$u20$W$u20$as$u20$core..fmt..Write..write_fmt..SpecWriteFmt$GT$14spec_write_fmt17h4bf935f97627a442E+0x20>
    80001cd6:	6542                	ld	a0,16(sp)
    80001cd8:	7582                	ld	a1,32(sp)
    80001cda:	7622                	ld	a2,40(sp)
    80001cdc:	f4ae                	sd	a1,104(sp)
    80001cde:	f8b2                	sd	a2,112(sp)
    80001ce0:	00000097          	auipc	ra,0x0
    80001ce4:	c3a080e7          	jalr	-966(ra) # 8000191a <_ZN52_$LT$sos..uart..Uart$u20$as$u20$core..fmt..Write$GT$9write_str17h5d2a4b4ca9c6d311E>
    80001ce8:	00a10fa3          	sb	a0,31(sp)
    80001cec:	a81d                	j	80001d22 <_ZN75_$LT$$RF$mut$u20$W$u20$as$u20$core..fmt..Write..write_fmt..SpecWriteFmt$GT$14spec_write_fmt17h4bf935f97627a442E+0x6c>
    80001cee:	6542                	ld	a0,16(sp)
    80001cf0:	65a2                	ld	a1,8(sp)
    80001cf2:	7590                	ld	a2,40(a1)
    80001cf4:	ecb2                	sd	a2,88(sp)
    80001cf6:	7190                	ld	a2,32(a1)
    80001cf8:	e8b2                	sd	a2,80(sp)
    80001cfa:	6d90                	ld	a2,24(a1)
    80001cfc:	e4b2                	sd	a2,72(sp)
    80001cfe:	6990                	ld	a2,16(a1)
    80001d00:	e0b2                	sd	a2,64(sp)
    80001d02:	6590                	ld	a2,8(a1)
    80001d04:	fc32                	sd	a2,56(sp)
    80001d06:	618c                	ld	a1,0(a1)
    80001d08:	f82e                	sd	a1,48(sp)
    80001d0a:	0001c597          	auipc	a1,0x1c
    80001d0e:	9de58593          	addi	a1,a1,-1570 # 8001d6e8 <$d.3>
    80001d12:	1810                	addi	a2,sp,48
    80001d14:	0000d097          	auipc	ra,0xd
    80001d18:	b5e080e7          	jalr	-1186(ra) # 8000e872 <_ZN4core3fmt5write17h9557c956482cbb59E>
    80001d1c:	00a10fa3          	sb	a0,31(sp)
    80001d20:	a009                	j	80001d22 <_ZN75_$LT$$RF$mut$u20$W$u20$as$u20$core..fmt..Write..write_fmt..SpecWriteFmt$GT$14spec_write_fmt17h4bf935f97627a442E+0x6c>
    80001d22:	01f14503          	lbu	a0,31(sp)
    80001d26:	70e6                	ld	ra,120(sp)
    80001d28:	6109                	addi	sp,sp,128
    80001d2a:	8082                	ret

0000000080001d2c <_ZN3sos3reg9mepc_read17h76108dac4120bb87E>:
    80001d2c:	1141                	addi	sp,sp,-16
    80001d2e:	34102573          	csrr	a0,mepc
    80001d32:	e42a                	sd	a0,8(sp)
    80001d34:	6522                	ld	a0,8(sp)
    80001d36:	0141                	addi	sp,sp,16
    80001d38:	8082                	ret

0000000080001d3a <_ZN3sos3reg10mtval_read17hafdca7674ef3244eE>:
    80001d3a:	1141                	addi	sp,sp,-16
    80001d3c:	34302573          	csrr	a0,mtval
    80001d40:	e42a                	sd	a0,8(sp)
    80001d42:	6522                	ld	a0,8(sp)
    80001d44:	0141                	addi	sp,sp,16
    80001d46:	8082                	ret

0000000080001d48 <_ZN3sos3reg11mcause_read17hbc0a4a28d165fc53E>:
    80001d48:	1141                	addi	sp,sp,-16
    80001d4a:	34202573          	csrr	a0,mcause
    80001d4e:	e42a                	sd	a0,8(sp)
    80001d50:	6522                	ld	a0,8(sp)
    80001d52:	0141                	addi	sp,sp,16
    80001d54:	8082                	ret

0000000080001d56 <_ZN3sos3reg12mhartid_read17h7d55a2f72ed4d1baE>:
    80001d56:	1141                	addi	sp,sp,-16
    80001d58:	f1402573          	csrr	a0,mhartid
    80001d5c:	e42a                	sd	a0,8(sp)
    80001d5e:	6522                	ld	a0,8(sp)
    80001d60:	0141                	addi	sp,sp,16
    80001d62:	8082                	ret

0000000080001d64 <_ZN3sos3reg12mstatus_read17h8c9a8bb35acab77eE>:
    80001d64:	1141                	addi	sp,sp,-16
    80001d66:	30002573          	csrr	a0,mstatus
    80001d6a:	e42a                	sd	a0,8(sp)
    80001d6c:	6522                	ld	a0,8(sp)
    80001d6e:	0141                	addi	sp,sp,16
    80001d70:	8082                	ret

0000000080001d72 <_ZN4core5panic10panic_info9PanicInfo7message17h818d7378c4c8d113E>:
    80001d72:	1141                	addi	sp,sp,-16
    80001d74:	e42a                	sd	a0,8(sp)
    80001d76:	6908                	ld	a0,16(a0)
    80001d78:	0141                	addi	sp,sp,16
    80001d7a:	8082                	ret

0000000080001d7c <_ZN4core5panic10panic_info9PanicInfo8location17h640df8e23593b498E>:
    80001d7c:	1141                	addi	sp,sp,-16
    80001d7e:	e42a                	sd	a0,8(sp)
    80001d80:	6d08                	ld	a0,24(a0)
    80001d82:	e02a                	sd	a0,0(sp)
    80001d84:	6502                	ld	a0,0(sp)
    80001d86:	0141                	addi	sp,sp,16
    80001d88:	8082                	ret

0000000080001d8a <_ZN63_$LT$I$u20$as$u20$core..iter..traits..collect..IntoIterator$GT$9into_iter17h2f80583c88ccb5a1E>:
    80001d8a:	1141                	addi	sp,sp,-16
    80001d8c:	e02a                	sd	a0,0(sp)
    80001d8e:	e42e                	sd	a1,8(sp)
    80001d90:	0141                	addi	sp,sp,16
    80001d92:	8082                	ret

0000000080001d94 <_ZN4core5panic8location8Location4file17ha9a8c8471b61d769E>:
    80001d94:	1141                	addi	sp,sp,-16
    80001d96:	85aa                	mv	a1,a0
    80001d98:	e42e                	sd	a1,8(sp)
    80001d9a:	6188                	ld	a0,0(a1)
    80001d9c:	658c                	ld	a1,8(a1)
    80001d9e:	0141                	addi	sp,sp,16
    80001da0:	8082                	ret

0000000080001da2 <_ZN4core5panic8location8Location4line17h6c8a81aaba53bfe6E>:
    80001da2:	1141                	addi	sp,sp,-16
    80001da4:	e42a                	sd	a0,8(sp)
    80001da6:	4908                	lw	a0,16(a0)
    80001da8:	0141                	addi	sp,sp,16
    80001daa:	8082                	ret

0000000080001dac <_ZN106_$LT$core..ops..range..Range$LT$usize$GT$$u20$as$u20$core..slice..index..SliceIndex$LT$$u5b$T$u5d$$GT$$GT$17get_unchecked_mut17h056e13c14512f86cE>:
    80001dac:	7171                	addi	sp,sp,-176
    80001dae:	f506                	sd	ra,168(sp)
    80001db0:	e036                	sd	a3,0(sp)
    80001db2:	e432                	sd	a2,8(sp)
    80001db4:	e82e                	sd	a1,16(sp)
    80001db6:	ec2a                	sd	a0,24(sp)
    80001db8:	e8aa                	sd	a0,80(sp)
    80001dba:	ecae                	sd	a1,88(sp)
    80001dbc:	f0b2                	sd	a2,96(sp)
    80001dbe:	f4b6                	sd	a3,104(sp)
    80001dc0:	a009                	j	80001dc2 <_ZN106_$LT$core..ops..range..Range$LT$usize$GT$$u20$as$u20$core..slice..index..SliceIndex$LT$$u5b$T$u5d$$GT$$GT$17get_unchecked_mut17h056e13c14512f86cE+0x16>
    80001dc2:	65c2                	ld	a1,16(sp)
    80001dc4:	6562                	ld	a0,24(sp)
    80001dc6:	6602                	ld	a2,0(sp)
    80001dc8:	66a2                	ld	a3,8(sp)
    80001dca:	f8b6                	sd	a3,112(sp)
    80001dcc:	fcb2                	sd	a2,120(sp)
    80001dce:	f036                	sd	a3,32(sp)
    80001dd0:	f432                	sd	a2,40(sp)
    80001dd2:	7622                	ld	a2,40(sp)
    80001dd4:	0001a097          	auipc	ra,0x1a
    80001dd8:	09c080e7          	jalr	156(ra) # 8001be70 <_ZN106_$LT$core..ops..range..Range$LT$usize$GT$$u20$as$u20$core..slice..index..SliceIndex$LT$$u5b$T$u5d$$GT$$GT$17get_unchecked_mut18precondition_check17he1514b3667b957c3E>
    80001ddc:	a009                	j	80001dde <_ZN106_$LT$core..ops..range..Range$LT$usize$GT$$u20$as$u20$core..slice..index..SliceIndex$LT$$u5b$T$u5d$$GT$$GT$17get_unchecked_mut17h056e13c14512f86cE+0x32>
    80001dde:	65a2                	ld	a1,8(sp)
    80001de0:	6662                	ld	a2,24(sp)
    80001de2:	6542                	ld	a0,16(sp)
    80001de4:	e132                	sd	a2,128(sp)
    80001de6:	8d11                	sub	a0,a0,a2
    80001de8:	e52a                	sd	a0,136(sp)
    80001dea:	e92e                	sd	a1,144(sp)
    80001dec:	95b2                	add	a1,a1,a2
    80001dee:	ed2e                	sd	a1,152(sp)
    80001df0:	f12e                	sd	a1,160(sp)
    80001df2:	e0ae                	sd	a1,64(sp)
    80001df4:	e4aa                	sd	a0,72(sp)
    80001df6:	6586                	ld	a1,64(sp)
    80001df8:	6526                	ld	a0,72(sp)
    80001dfa:	f82e                	sd	a1,48(sp)
    80001dfc:	fc2a                	sd	a0,56(sp)
    80001dfe:	7542                	ld	a0,48(sp)
    80001e00:	75e2                	ld	a1,56(sp)
    80001e02:	70aa                	ld	ra,168(sp)
    80001e04:	614d                	addi	sp,sp,176
    80001e06:	8082                	ret

0000000080001e08 <_ZN106_$LT$core..ops..range..Range$LT$usize$GT$$u20$as$u20$core..slice..index..SliceIndex$LT$$u5b$T$u5d$$GT$$GT$9index_mut17heb019e855c17947fE>:
    80001e08:	715d                	addi	sp,sp,-80
    80001e0a:	e486                	sd	ra,72(sp)
    80001e0c:	e03a                	sd	a4,0(sp)
    80001e0e:	e436                	sd	a3,8(sp)
    80001e10:	e832                	sd	a2,16(sp)
    80001e12:	ec2e                	sd	a1,24(sp)
    80001e14:	f02a                	sd	a0,32(sp)
    80001e16:	f42a                	sd	a0,40(sp)
    80001e18:	f82e                	sd	a1,48(sp)
    80001e1a:	fc32                	sd	a2,56(sp)
    80001e1c:	e0b6                	sd	a3,64(sp)
    80001e1e:	00a5e863          	bltu	a1,a0,80001e2e <_ZN106_$LT$core..ops..range..Range$LT$usize$GT$$u20$as$u20$core..slice..index..SliceIndex$LT$$u5b$T$u5d$$GT$$GT$9index_mut17heb019e855c17947fE+0x26>
    80001e22:	a009                	j	80001e24 <_ZN106_$LT$core..ops..range..Range$LT$usize$GT$$u20$as$u20$core..slice..index..SliceIndex$LT$$u5b$T$u5d$$GT$$GT$9index_mut17heb019e855c17947fE+0x1c>
    80001e24:	6522                	ld	a0,8(sp)
    80001e26:	65e2                	ld	a1,24(sp)
    80001e28:	02b56563          	bltu	a0,a1,80001e52 <_ZN106_$LT$core..ops..range..Range$LT$usize$GT$$u20$as$u20$core..slice..index..SliceIndex$LT$$u5b$T$u5d$$GT$$GT$9index_mut17heb019e855c17947fE+0x4a>
    80001e2c:	a801                	j	80001e3c <_ZN106_$LT$core..ops..range..Range$LT$usize$GT$$u20$as$u20$core..slice..index..SliceIndex$LT$$u5b$T$u5d$$GT$$GT$9index_mut17heb019e855c17947fE+0x34>
    80001e2e:	6602                	ld	a2,0(sp)
    80001e30:	65e2                	ld	a1,24(sp)
    80001e32:	7502                	ld	a0,32(sp)
    80001e34:	0000f097          	auipc	ra,0xf
    80001e38:	fe2080e7          	jalr	-30(ra) # 80010e16 <_ZN4core5slice5index22slice_index_order_fail17hf3cbb5a823d250cbE>
    80001e3c:	66a2                	ld	a3,8(sp)
    80001e3e:	6642                	ld	a2,16(sp)
    80001e40:	65e2                	ld	a1,24(sp)
    80001e42:	7502                	ld	a0,32(sp)
    80001e44:	00000097          	auipc	ra,0x0
    80001e48:	f68080e7          	jalr	-152(ra) # 80001dac <_ZN106_$LT$core..ops..range..Range$LT$usize$GT$$u20$as$u20$core..slice..index..SliceIndex$LT$$u5b$T$u5d$$GT$$GT$17get_unchecked_mut17h056e13c14512f86cE>
    80001e4c:	60a6                	ld	ra,72(sp)
    80001e4e:	6161                	addi	sp,sp,80
    80001e50:	8082                	ret
    80001e52:	6602                	ld	a2,0(sp)
    80001e54:	65a2                	ld	a1,8(sp)
    80001e56:	6562                	ld	a0,24(sp)
    80001e58:	0000f097          	auipc	ra,0xf
    80001e5c:	f4e080e7          	jalr	-178(ra) # 80010da6 <_ZN4core5slice5index24slice_end_index_len_fail17h495d568076616db5E>

0000000080001e60 <_ZN4core4iter5range101_$LT$impl$u20$core..iter..traits..iterator..Iterator$u20$for$u20$core..ops..range..Range$LT$A$GT$$GT$4next17hdface09eb370ad0cE>:
    80001e60:	1141                	addi	sp,sp,-16
    80001e62:	e406                	sd	ra,8(sp)
    80001e64:	e02a                	sd	a0,0(sp)
    80001e66:	00000097          	auipc	ra,0x0
    80001e6a:	018080e7          	jalr	24(ra) # 80001e7e <_ZN89_$LT$core..ops..range..Range$LT$T$GT$$u20$as$u20$core..iter..range..RangeIteratorImpl$GT$9spec_next17hc4a9740409c99a4fE>
    80001e6e:	60a2                	ld	ra,8(sp)
    80001e70:	0141                	addi	sp,sp,16
    80001e72:	8082                	ret

0000000080001e74 <_ZN63_$LT$I$u20$as$u20$core..iter..traits..collect..IntoIterator$GT$9into_iter17h247736a8e622b520E>:
    80001e74:	1141                	addi	sp,sp,-16
    80001e76:	e02a                	sd	a0,0(sp)
    80001e78:	e42e                	sd	a1,8(sp)
    80001e7a:	0141                	addi	sp,sp,16
    80001e7c:	8082                	ret

0000000080001e7e <_ZN89_$LT$core..ops..range..Range$LT$T$GT$$u20$as$u20$core..iter..range..RangeIteratorImpl$GT$9spec_next17hc4a9740409c99a4fE>:
    80001e7e:	715d                	addi	sp,sp,-80
    80001e80:	e486                	sd	ra,72(sp)
    80001e82:	85aa                	mv	a1,a0
    80001e84:	e82e                	sd	a1,16(sp)
    80001e86:	f42e                	sd	a1,40(sp)
    80001e88:	00858513          	addi	a0,a1,8
    80001e8c:	fc2e                	sd	a1,56(sp)
    80001e8e:	e0aa                	sd	a0,64(sp)
    80001e90:	6188                	ld	a0,0(a1)
    80001e92:	658c                	ld	a1,8(a1)
    80001e94:	00b56663          	bltu	a0,a1,80001ea0 <_ZN89_$LT$core..ops..range..Range$LT$T$GT$$u20$as$u20$core..iter..range..RangeIteratorImpl$GT$9spec_next17hc4a9740409c99a4fE+0x22>
    80001e98:	a009                	j	80001e9a <_ZN89_$LT$core..ops..range..Range$LT$T$GT$$u20$as$u20$core..iter..range..RangeIteratorImpl$GT$9spec_next17hc4a9740409c99a4fE+0x1c>
    80001e9a:	4501                	li	a0,0
    80001e9c:	ec2a                	sd	a0,24(sp)
    80001e9e:	a01d                	j	80001ec4 <_ZN89_$LT$core..ops..range..Range$LT$T$GT$$u20$as$u20$core..iter..range..RangeIteratorImpl$GT$9spec_next17hc4a9740409c99a4fE+0x46>
    80001ea0:	6542                	ld	a0,16(sp)
    80001ea2:	6108                	ld	a0,0(a0)
    80001ea4:	e02a                	sd	a0,0(sp)
    80001ea6:	f82a                	sd	a0,48(sp)
    80001ea8:	4585                	li	a1,1
    80001eaa:	e42e                	sd	a1,8(sp)
    80001eac:	0001a097          	auipc	ra,0x1a
    80001eb0:	cd6080e7          	jalr	-810(ra) # 8001bb82 <_ZN49_$LT$usize$u20$as$u20$core..iter..range..Step$GT$17forward_unchecked17hde602b2991478b69E>
    80001eb4:	66c2                	ld	a3,16(sp)
    80001eb6:	6582                	ld	a1,0(sp)
    80001eb8:	862a                	mv	a2,a0
    80001eba:	6522                	ld	a0,8(sp)
    80001ebc:	e290                	sd	a2,0(a3)
    80001ebe:	f02e                	sd	a1,32(sp)
    80001ec0:	ec2a                	sd	a0,24(sp)
    80001ec2:	a009                	j	80001ec4 <_ZN89_$LT$core..ops..range..Range$LT$T$GT$$u20$as$u20$core..iter..range..RangeIteratorImpl$GT$9spec_next17hc4a9740409c99a4fE+0x46>
    80001ec4:	6562                	ld	a0,24(sp)
    80001ec6:	7582                	ld	a1,32(sp)
    80001ec8:	60a6                	ld	ra,72(sp)
    80001eca:	6161                	addi	sp,sp,80
    80001ecc:	8082                	ret

0000000080001ece <_ZN4core3ops8function6FnOnce9call_once17hb530cd6c51059f23E>:
    80001ece:	1141                	addi	sp,sp,-16
    80001ed0:	e406                	sd	ra,8(sp)
    80001ed2:	e022                	sd	s0,0(sp)
    80001ed4:	0800                	addi	s0,sp,16
    80001ed6:	00053003          	ld	zero,0(a0)
    80001eda:	a001                	j	80001eda <_ZN4core3ops8function6FnOnce9call_once17hb530cd6c51059f23E+0xc>

0000000080001edc <_ZN4core3ptr25drop_in_place$LT$char$GT$17hfc1426d1a87fae6bE>:
    80001edc:	1141                	addi	sp,sp,-16
    80001ede:	e406                	sd	ra,8(sp)
    80001ee0:	e022                	sd	s0,0(sp)
    80001ee2:	0800                	addi	s0,sp,16
    80001ee4:	60a2                	ld	ra,8(sp)
    80001ee6:	6402                	ld	s0,0(sp)
    80001ee8:	0141                	addi	sp,sp,16
    80001eea:	8082                	ret

0000000080001eec <_ZN4core3ptr26drop_in_place$LT$usize$GT$17hda90b2824f3ceebfE>:
    80001eec:	1141                	addi	sp,sp,-16
    80001eee:	e406                	sd	ra,8(sp)
    80001ef0:	e022                	sd	s0,0(sp)
    80001ef2:	0800                	addi	s0,sp,16
    80001ef4:	60a2                	ld	ra,8(sp)
    80001ef6:	6402                	ld	s0,0(sp)
    80001ef8:	0141                	addi	sp,sp,16
    80001efa:	8082                	ret

0000000080001efc <_ZN4core3ptr37drop_in_place$LT$core..fmt..Error$GT$17h83521d99b4db6570E>:
    80001efc:	1141                	addi	sp,sp,-16
    80001efe:	e406                	sd	ra,8(sp)
    80001f00:	e022                	sd	s0,0(sp)
    80001f02:	0800                	addi	s0,sp,16
    80001f04:	60a2                	ld	ra,8(sp)
    80001f06:	6402                	ld	s0,0(sp)
    80001f08:	0141                	addi	sp,sp,16
    80001f0a:	8082                	ret

0000000080001f0c <_ZN4core3f3221_$LT$impl$u20$f32$GT$7to_bits13ct_f32_to_u3217ha3a4749aa8b70714E>:
    80001f0c:	7139                	addi	sp,sp,-64
    80001f0e:	fc06                	sd	ra,56(sp)
    80001f10:	f822                	sd	s0,48(sp)
    80001f12:	0080                	addi	s0,sp,64
    80001f14:	20a527d3          	fabs.s	fa5,fa0
    80001f18:	7f800537          	lui	a0,0x7f800
    80001f1c:	f0050753          	fmv.w.x	fa4,a0
    80001f20:	a0e7a5d3          	feq.s	a1,fa5,fa4
    80001f24:	e0050553          	fmv.x.w	a0,fa0
    80001f28:	e999                	bnez	a1,80001f3e <_ZN4core3f3221_$LT$impl$u20$f32$GT$7to_bits13ct_f32_to_u3217ha3a4749aa8b70714E+0x32>
    80001f2a:	a0a525d3          	feq.s	a1,fa0,fa0
    80001f2e:	cd81                	beqz	a1,80001f46 <_ZN4core3f3221_$LT$impl$u20$f32$GT$7to_bits13ct_f32_to_u3217ha3a4749aa8b70714E+0x3a>
    80001f30:	e00785d3          	fmv.x.w	a1,fa5
    80001f34:	c589                	beqz	a1,80001f3e <_ZN4core3f3221_$LT$impl$u20$f32$GT$7to_bits13ct_f32_to_u3217ha3a4749aa8b70714E+0x32>
    80001f36:	7f8005b7          	lui	a1,0x7f800
    80001f3a:	8de9                	and	a1,a1,a0
    80001f3c:	c1b1                	beqz	a1,80001f80 <_ZN4core3f3221_$LT$impl$u20$f32$GT$7to_bits13ct_f32_to_u3217ha3a4749aa8b70714E+0x74>
    80001f3e:	70e2                	ld	ra,56(sp)
    80001f40:	7442                	ld	s0,48(sp)
    80001f42:	6121                	addi	sp,sp,64
    80001f44:	8082                	ret
    80001f46:	0001c517          	auipc	a0,0x1c
    80001f4a:	eaa50513          	addi	a0,a0,-342 # 8001ddf0 <$d.468>
    80001f4e:	fca43023          	sd	a0,-64(s0)
    80001f52:	4505                	li	a0,1
    80001f54:	fca43423          	sd	a0,-56(s0)
    80001f58:	fe043023          	sd	zero,-32(s0)
    80001f5c:	0001c517          	auipc	a0,0x1c
    80001f60:	ea450513          	addi	a0,a0,-348 # 8001de00 <$d.469>
    80001f64:	fca43823          	sd	a0,-48(s0)
    80001f68:	fc043c23          	sd	zero,-40(s0)
    80001f6c:	0001c517          	auipc	a0,0x1c
    80001f70:	eb450593          	addi	a1,a0,-332 # 8001de20 <$d.470>
    80001f74:	fc040513          	addi	a0,s0,-64
    80001f78:	0000a097          	auipc	ra,0xa
    80001f7c:	838080e7          	jalr	-1992(ra) # 8000b7b0 <_ZN4core9panicking9panic_fmt17hd047250bdc742b6aE>
    80001f80:	0001c517          	auipc	a0,0x1c
    80001f84:	ef850513          	addi	a0,a0,-264 # 8001de78 <$d.472>
    80001f88:	fca43023          	sd	a0,-64(s0)
    80001f8c:	4505                	li	a0,1
    80001f8e:	fca43423          	sd	a0,-56(s0)
    80001f92:	fe043023          	sd	zero,-32(s0)
    80001f96:	0001c517          	auipc	a0,0x1c
    80001f9a:	e6a50513          	addi	a0,a0,-406 # 8001de00 <$d.469>
    80001f9e:	fca43823          	sd	a0,-48(s0)
    80001fa2:	fc043c23          	sd	zero,-40(s0)
    80001fa6:	0001c517          	auipc	a0,0x1c
    80001faa:	ee250593          	addi	a1,a0,-286 # 8001de88 <$d.473>
    80001fae:	fc040513          	addi	a0,s0,-64
    80001fb2:	00009097          	auipc	ra,0x9
    80001fb6:	7fe080e7          	jalr	2046(ra) # 8000b7b0 <_ZN4core9panicking9panic_fmt17hd047250bdc742b6aE>

0000000080001fba <_ZN4core3f3221_$LT$impl$u20$f32$GT$9from_bits13ct_u32_to_f3217hc55efc50ba69a31cE>:
    80001fba:	7139                	addi	sp,sp,-64
    80001fbc:	fc06                	sd	ra,56(sp)
    80001fbe:	f822                	sd	s0,48(sp)
    80001fc0:	0080                	addi	s0,sp,64
    80001fc2:	02151593          	slli	a1,a0,0x21
    80001fc6:	0215d613          	srli	a2,a1,0x21
    80001fca:	7f8005b7          	lui	a1,0x7f800
    80001fce:	04b60963          	beq	a2,a1,80002020 <_ZN4core3f3221_$LT$impl$u20$f32$GT$9from_bits13ct_u32_to_f3217hc55efc50ba69a31cE+0x66>
    80001fd2:	8de9                	and	a1,a1,a0
    80001fd4:	c1b1                	beqz	a1,80002018 <_ZN4core3f3221_$LT$impl$u20$f32$GT$9from_bits13ct_u32_to_f3217hc55efc50ba69a31cE+0x5e>
    80001fd6:	7f800637          	lui	a2,0x7f800
    80001fda:	04c59363          	bne	a1,a2,80002020 <_ZN4core3f3221_$LT$impl$u20$f32$GT$9from_bits13ct_u32_to_f3217hc55efc50ba69a31cE+0x66>
    80001fde:	0001c517          	auipc	a0,0x1c
    80001fe2:	efa50513          	addi	a0,a0,-262 # 8001ded8 <$d.475>
    80001fe6:	fca43023          	sd	a0,-64(s0)
    80001fea:	4505                	li	a0,1
    80001fec:	fca43423          	sd	a0,-56(s0)
    80001ff0:	fe043023          	sd	zero,-32(s0)
    80001ff4:	0001c517          	auipc	a0,0x1c
    80001ff8:	e0c50513          	addi	a0,a0,-500 # 8001de00 <$d.469>
    80001ffc:	fca43823          	sd	a0,-48(s0)
    80002000:	fc043c23          	sd	zero,-40(s0)
    80002004:	0001c517          	auipc	a0,0x1c
    80002008:	ee450593          	addi	a1,a0,-284 # 8001dee8 <$d.476>
    8000200c:	fc040513          	addi	a0,s0,-64
    80002010:	00009097          	auipc	ra,0x9
    80002014:	7a0080e7          	jalr	1952(ra) # 8000b7b0 <_ZN4core9panicking9panic_fmt17hd047250bdc742b6aE>
    80002018:	02951593          	slli	a1,a0,0x29
    8000201c:	91a5                	srli	a1,a1,0x29
    8000201e:	e599                	bnez	a1,8000202c <_ZN4core3f3221_$LT$impl$u20$f32$GT$9from_bits13ct_u32_to_f3217hc55efc50ba69a31cE+0x72>
    80002020:	f0050553          	fmv.w.x	fa0,a0
    80002024:	70e2                	ld	ra,56(sp)
    80002026:	7442                	ld	s0,48(sp)
    80002028:	6121                	addi	sp,sp,64
    8000202a:	8082                	ret
    8000202c:	0001c517          	auipc	a0,0x1c
    80002030:	f1c50513          	addi	a0,a0,-228 # 8001df48 <$d.478>
    80002034:	fca43023          	sd	a0,-64(s0)
    80002038:	4505                	li	a0,1
    8000203a:	fca43423          	sd	a0,-56(s0)
    8000203e:	fe043023          	sd	zero,-32(s0)
    80002042:	0001c517          	auipc	a0,0x1c
    80002046:	dbe50513          	addi	a0,a0,-578 # 8001de00 <$d.469>
    8000204a:	fca43823          	sd	a0,-48(s0)
    8000204e:	fc043c23          	sd	zero,-40(s0)
    80002052:	0001c517          	auipc	a0,0x1c
    80002056:	f0650593          	addi	a1,a0,-250 # 8001df58 <$d.479>
    8000205a:	fc040513          	addi	a0,s0,-64
    8000205e:	00009097          	auipc	ra,0x9
    80002062:	752080e7          	jalr	1874(ra) # 8000b7b0 <_ZN4core9panicking9panic_fmt17hd047250bdc742b6aE>

0000000080002066 <_ZN4core3f6421_$LT$impl$u20$f64$GT$7to_bits13ct_f64_to_u6417ha72cb05e84e3f73eE>:
    80002066:	7139                	addi	sp,sp,-64
    80002068:	fc06                	sd	ra,56(sp)
    8000206a:	f822                	sd	s0,48(sp)
    8000206c:	0080                	addi	s0,sp,64
    8000206e:	a2a52553          	feq.d	a0,fa0,fa0
    80002072:	cd19                	beqz	a0,80002090 <_ZN4core3f6421_$LT$impl$u20$f64$GT$7to_bits13ct_f64_to_u6417ha72cb05e84e3f73eE+0x2a>
    80002074:	e2050553          	fmv.x.d	a0,fa0
    80002078:	00c51593          	slli	a1,a0,0xc
    8000207c:	c591                	beqz	a1,80002088 <_ZN4core3f6421_$LT$impl$u20$f64$GT$7to_bits13ct_f64_to_u6417ha72cb05e84e3f73eE+0x22>
    8000207e:	7ff00593          	li	a1,2047
    80002082:	15d2                	slli	a1,a1,0x34
    80002084:	8de9                	and	a1,a1,a0
    80002086:	c1b1                	beqz	a1,800020ca <_ZN4core3f6421_$LT$impl$u20$f64$GT$7to_bits13ct_f64_to_u6417ha72cb05e84e3f73eE+0x64>
    80002088:	70e2                	ld	ra,56(sp)
    8000208a:	7442                	ld	s0,48(sp)
    8000208c:	6121                	addi	sp,sp,64
    8000208e:	8082                	ret
    80002090:	0001c517          	auipc	a0,0x1c
    80002094:	fa050513          	addi	a0,a0,-96 # 8001e030 <$d.485>
    80002098:	fca43023          	sd	a0,-64(s0)
    8000209c:	4505                	li	a0,1
    8000209e:	fca43423          	sd	a0,-56(s0)
    800020a2:	fe043023          	sd	zero,-32(s0)
    800020a6:	0001c517          	auipc	a0,0x1c
    800020aa:	d5a50513          	addi	a0,a0,-678 # 8001de00 <$d.469>
    800020ae:	fca43823          	sd	a0,-48(s0)
    800020b2:	fc043c23          	sd	zero,-40(s0)
    800020b6:	0001c517          	auipc	a0,0x1c
    800020ba:	f8a50593          	addi	a1,a0,-118 # 8001e040 <$d.486>
    800020be:	fc040513          	addi	a0,s0,-64
    800020c2:	00009097          	auipc	ra,0x9
    800020c6:	6ee080e7          	jalr	1774(ra) # 8000b7b0 <_ZN4core9panicking9panic_fmt17hd047250bdc742b6aE>
    800020ca:	0001c517          	auipc	a0,0x1c
    800020ce:	ee650513          	addi	a0,a0,-282 # 8001dfb0 <$d.481>
    800020d2:	fca43023          	sd	a0,-64(s0)
    800020d6:	4505                	li	a0,1
    800020d8:	fca43423          	sd	a0,-56(s0)
    800020dc:	fe043023          	sd	zero,-32(s0)
    800020e0:	0001c517          	auipc	a0,0x1c
    800020e4:	d2050513          	addi	a0,a0,-736 # 8001de00 <$d.469>
    800020e8:	fca43823          	sd	a0,-48(s0)
    800020ec:	fc043c23          	sd	zero,-40(s0)
    800020f0:	0001c517          	auipc	a0,0x1c
    800020f4:	ef050593          	addi	a1,a0,-272 # 8001dfe0 <$d.483>
    800020f8:	fc040513          	addi	a0,s0,-64
    800020fc:	00009097          	auipc	ra,0x9
    80002100:	6b4080e7          	jalr	1716(ra) # 8000b7b0 <_ZN4core9panicking9panic_fmt17hd047250bdc742b6aE>

0000000080002104 <_ZN4core3f6421_$LT$impl$u20$f64$GT$9from_bits13ct_u64_to_f6417h504d9b973baddc39E>:
    80002104:	7139                	addi	sp,sp,-64
    80002106:	fc06                	sd	ra,56(sp)
    80002108:	f822                	sd	s0,48(sp)
    8000210a:	0080                	addi	s0,sp,64
    8000210c:	00151593          	slli	a1,a0,0x1
    80002110:	0015d613          	srli	a2,a1,0x1
    80002114:	7ff00593          	li	a1,2047
    80002118:	15d2                	slli	a1,a1,0x34
    8000211a:	04b60a63          	beq	a2,a1,8000216e <_ZN4core3f6421_$LT$impl$u20$f64$GT$9from_bits13ct_u64_to_f6417h504d9b973baddc39E+0x6a>
    8000211e:	8de9                	and	a1,a1,a0
    80002120:	c1b9                	beqz	a1,80002166 <_ZN4core3f6421_$LT$impl$u20$f64$GT$9from_bits13ct_u64_to_f6417h504d9b973baddc39E+0x62>
    80002122:	7ff00613          	li	a2,2047
    80002126:	1652                	slli	a2,a2,0x34
    80002128:	04c59363          	bne	a1,a2,8000216e <_ZN4core3f6421_$LT$impl$u20$f64$GT$9from_bits13ct_u64_to_f6417h504d9b973baddc39E+0x6a>
    8000212c:	0001c517          	auipc	a0,0x1c
    80002130:	f6450513          	addi	a0,a0,-156 # 8001e090 <$d.488>
    80002134:	fca43023          	sd	a0,-64(s0)
    80002138:	4505                	li	a0,1
    8000213a:	fca43423          	sd	a0,-56(s0)
    8000213e:	fe043023          	sd	zero,-32(s0)
    80002142:	0001c517          	auipc	a0,0x1c
    80002146:	cbe50513          	addi	a0,a0,-834 # 8001de00 <$d.469>
    8000214a:	fca43823          	sd	a0,-48(s0)
    8000214e:	fc043c23          	sd	zero,-40(s0)
    80002152:	0001c517          	auipc	a0,0x1c
    80002156:	f4e50593          	addi	a1,a0,-178 # 8001e0a0 <$d.489>
    8000215a:	fc040513          	addi	a0,s0,-64
    8000215e:	00009097          	auipc	ra,0x9
    80002162:	652080e7          	jalr	1618(ra) # 8000b7b0 <_ZN4core9panicking9panic_fmt17hd047250bdc742b6aE>
    80002166:	00c51593          	slli	a1,a0,0xc
    8000216a:	81b1                	srli	a1,a1,0xc
    8000216c:	e599                	bnez	a1,8000217a <_ZN4core3f6421_$LT$impl$u20$f64$GT$9from_bits13ct_u64_to_f6417h504d9b973baddc39E+0x76>
    8000216e:	f2050553          	fmv.d.x	fa0,a0
    80002172:	70e2                	ld	ra,56(sp)
    80002174:	7442                	ld	s0,48(sp)
    80002176:	6121                	addi	sp,sp,64
    80002178:	8082                	ret
    8000217a:	0001c517          	auipc	a0,0x1c
    8000217e:	f8650513          	addi	a0,a0,-122 # 8001e100 <$d.491>
    80002182:	fca43023          	sd	a0,-64(s0)
    80002186:	4505                	li	a0,1
    80002188:	fca43423          	sd	a0,-56(s0)
    8000218c:	fe043023          	sd	zero,-32(s0)
    80002190:	0001c517          	auipc	a0,0x1c
    80002194:	c7050513          	addi	a0,a0,-912 # 8001de00 <$d.469>
    80002198:	fca43823          	sd	a0,-48(s0)
    8000219c:	fc043c23          	sd	zero,-40(s0)
    800021a0:	0001c517          	auipc	a0,0x1c
    800021a4:	f7050593          	addi	a1,a0,-144 # 8001e110 <$d.492>
    800021a8:	fc040513          	addi	a0,s0,-64
    800021ac:	00009097          	auipc	ra,0x9
    800021b0:	604080e7          	jalr	1540(ra) # 8000b7b0 <_ZN4core9panicking9panic_fmt17hd047250bdc742b6aE>

00000000800021b4 <_ZN4core3num7dec2flt7decimal7Decimal5round17h9c037fa4867d5177E>:
    800021b4:	1141                	addi	sp,sp,-16
    800021b6:	e406                	sd	ra,8(sp)
    800021b8:	e022                	sd	s0,0(sp)
    800021ba:	0800                	addi	s0,sp,16
    800021bc:	6114                	ld	a3,0(a0)
    800021be:	ce95                	beqz	a3,800021fa <_ZN4core3num7dec2flt7decimal7Decimal5round17h9c037fa4867d5177E+0x46>
    800021c0:	882a                	mv	a6,a0
    800021c2:	30852603          	lw	a2,776(a0)
    800021c6:	02064f63          	bltz	a2,80002204 <_ZN4core3num7dec2flt7decimal7Decimal5round17h9c037fa4867d5177E+0x50>
    800021ca:	45c9                	li	a1,18
    800021cc:	557d                	li	a0,-1
    800021ce:	02c5e763          	bltu	a1,a2,800021fc <_ZN4core3num7dec2flt7decimal7Decimal5round17h9c037fa4867d5177E+0x48>
    800021d2:	00880893          	addi	a7,a6,8
    800021d6:	4501                	li	a0,0
    800021d8:	ca1d                	beqz	a2,8000220e <_ZN4core3num7dec2flt7decimal7Decimal5round17h9c037fa4867d5177E+0x5a>
    800021da:	4781                	li	a5,0
    800021dc:	45a9                	li	a1,10
    800021de:	a021                	j	800021e6 <_ZN4core3num7dec2flt7decimal7Decimal5round17h9c037fa4867d5177E+0x32>
    800021e0:	0785                	addi	a5,a5,1
    800021e2:	02f60663          	beq	a2,a5,8000220e <_ZN4core3num7dec2flt7decimal7Decimal5round17h9c037fa4867d5177E+0x5a>
    800021e6:	02b50533          	mul	a0,a0,a1
    800021ea:	fed7fbe3          	bgeu	a5,a3,800021e0 <_ZN4core3num7dec2flt7decimal7Decimal5round17h9c037fa4867d5177E+0x2c>
    800021ee:	00f88733          	add	a4,a7,a5
    800021f2:	00074703          	lbu	a4,0(a4)
    800021f6:	953a                	add	a0,a0,a4
    800021f8:	b7e5                	j	800021e0 <_ZN4core3num7dec2flt7decimal7Decimal5round17h9c037fa4867d5177E+0x2c>
    800021fa:	4501                	li	a0,0
    800021fc:	60a2                	ld	ra,8(sp)
    800021fe:	6402                	ld	s0,0(sp)
    80002200:	0141                	addi	sp,sp,16
    80002202:	8082                	ret
    80002204:	4501                	li	a0,0
    80002206:	60a2                	ld	ra,8(sp)
    80002208:	6402                	ld	s0,0(sp)
    8000220a:	0141                	addi	sp,sp,16
    8000220c:	8082                	ret
    8000220e:	fed677e3          	bgeu	a2,a3,800021fc <_ZN4core3num7dec2flt7decimal7Decimal5round17h9c037fa4867d5177E+0x48>
    80002212:	00c88733          	add	a4,a7,a2
    80002216:	00074583          	lbu	a1,0(a4)
    8000221a:	00160793          	addi	a5,a2,1 # 7f800001 <_heap_size+0x778b11e9>
    8000221e:	00d79e63          	bne	a5,a3,8000223a <_ZN4core3num7dec2flt7decimal7Decimal5round17h9c037fa4867d5177E+0x86>
    80002222:	4695                	li	a3,5
    80002224:	00d59b63          	bne	a1,a3,8000223a <_ZN4core3num7dec2flt7decimal7Decimal5round17h9c037fa4867d5177E+0x86>
    80002228:	30c84583          	lbu	a1,780(a6)
    8000222c:	e991                	bnez	a1,80002240 <_ZN4core3num7dec2flt7decimal7Decimal5round17h9c037fa4867d5177E+0x8c>
    8000222e:	d679                	beqz	a2,800021fc <_ZN4core3num7dec2flt7decimal7Decimal5round17h9c037fa4867d5177E+0x48>
    80002230:	fff74583          	lbu	a1,-1(a4)
    80002234:	8985                	andi	a1,a1,1
    80002236:	d1f9                	beqz	a1,800021fc <_ZN4core3num7dec2flt7decimal7Decimal5round17h9c037fa4867d5177E+0x48>
    80002238:	a021                	j	80002240 <_ZN4core3num7dec2flt7decimal7Decimal5round17h9c037fa4867d5177E+0x8c>
    8000223a:	4611                	li	a2,4
    8000223c:	fcb670e3          	bgeu	a2,a1,800021fc <_ZN4core3num7dec2flt7decimal7Decimal5round17h9c037fa4867d5177E+0x48>
    80002240:	0505                	addi	a0,a0,1
    80002242:	60a2                	ld	ra,8(sp)
    80002244:	6402                	ld	s0,0(sp)
    80002246:	0141                	addi	sp,sp,16
    80002248:	8082                	ret

000000008000224a <_ZN4core3num7dec2flt7decimal7Decimal10left_shift17he589bd36aac894fbE>:
    8000224a:	1101                	addi	sp,sp,-32
    8000224c:	ec06                	sd	ra,24(sp)
    8000224e:	e822                	sd	s0,16(sp)
    80002250:	e426                	sd	s1,8(sp)
    80002252:	1000                	addi	s0,sp,32
    80002254:	00053283          	ld	t0,0(a0)
    80002258:	12028e63          	beqz	t0,80002394 <_ZN4core3num7dec2flt7decimal7Decimal10left_shift17he589bd36aac894fbE+0x14a>
    8000225c:	03f5f893          	andi	a7,a1,63
    80002260:	00189593          	slli	a1,a7,0x1
    80002264:	0001c617          	auipc	a2,0x1c
    80002268:	f7c60613          	addi	a2,a2,-132 # 8001e1e0 <$d.500>
    8000226c:	95b2                	add	a1,a1,a2
    8000226e:	0005d603          	lhu	a2,0(a1) # 7f800000 <_heap_size+0x778b11e8>
    80002272:	7ff67f13          	andi	t5,a2,2047
    80002276:	51d00693          	li	a3,1309
    8000227a:	18df7a63          	bgeu	t5,a3,8000240e <_ZN4core3num7dec2flt7decimal7Decimal10left_shift17he589bd36aac894fbE+0x1c4>
    8000227e:	0025d583          	lhu	a1,2(a1)
    80002282:	00b65813          	srli	a6,a2,0xb
    80002286:	7ff5f593          	andi	a1,a1,2047
    8000228a:	40500e33          	neg	t3,t0
    8000228e:	40bf0633          	sub	a2,t5,a1
    80002292:	0001c597          	auipc	a1,0x1c
    80002296:	fd058e93          	addi	t4,a1,-48 # 8001e262 <$d.501>
    8000229a:	9efa                	add	t4,t4,t5
    8000229c:	4721                	li	a4,8
    8000229e:	52400313          	li	t1,1316
    800022a2:	30800393          	li	t2,776
    800022a6:	45a1                	li	a1,8
    800022a8:	00b606b3          	add	a3,a2,a1
    800022ac:	02e68d63          	beq	a3,a4,800022e6 <_ZN4core3num7dec2flt7decimal7Decimal10left_shift17he589bd36aac894fbE+0x9c>
    800022b0:	00bf06b3          	add	a3,t5,a1
    800022b4:	02668963          	beq	a3,t1,800022e6 <_ZN4core3num7dec2flt7decimal7Decimal10left_shift17he589bd36aac894fbE+0x9c>
    800022b8:	00be06b3          	add	a3,t3,a1
    800022bc:	02e68463          	beq	a3,a4,800022e4 <_ZN4core3num7dec2flt7decimal7Decimal10left_shift17he589bd36aac894fbE+0x9a>
    800022c0:	12758b63          	beq	a1,t2,800023f6 <_ZN4core3num7dec2flt7decimal7Decimal10left_shift17he589bd36aac894fbE+0x1ac>
    800022c4:	00be86b3          	add	a3,t4,a1
    800022c8:	ff86c783          	lbu	a5,-8(a3)
    800022cc:	00b506b3          	add	a3,a0,a1
    800022d0:	0006c683          	lbu	a3,0(a3)
    800022d4:	0585                	addi	a1,a1,1
    800022d6:	fcf689e3          	beq	a3,a5,800022a8 <_ZN4core3num7dec2flt7decimal7Decimal10left_shift17he589bd36aac894fbE+0x5e>
    800022da:	00f6b5b3          	sltu	a1,a3,a5
    800022de:	40b80833          	sub	a6,a6,a1
    800022e2:	a011                	j	800022e6 <_ZN4core3num7dec2flt7decimal7Decimal10left_shift17he589bd36aac894fbE+0x9c>
    800022e4:	187d                	addi	a6,a6,-1
    800022e6:	4701                	li	a4,0
    800022e8:	fff28693          	addi	a3,t0,-1
    800022ec:	00750f93          	addi	t6,a0,7
    800022f0:	010f8333          	add	t1,t6,a6
    800022f4:	30100293          	li	t0,769
    800022f8:	ccccd5b7          	lui	a1,0xccccd
    800022fc:	ccd5861b          	addiw	a2,a1,-819 # ffffffffcccccccd <_heap_end+0xffffffff44cccccd>
    80002300:	02061593          	slli	a1,a2,0x20
    80002304:	962e                	add	a2,a2,a1
    80002306:	53d9                	li	t2,-10
    80002308:	30000e13          	li	t3,768
    8000230c:	5f7d                	li	t5,-1
    8000230e:	4e85                	li	t4,1
    80002310:	a801                	j	80002320 <_ZN4core3num7dec2flt7decimal7Decimal10left_shift17he589bd36aac894fbE+0xd6>
    80002312:	00d304b3          	add	s1,t1,a3
    80002316:	00b480a3          	sb	a1,1(s1)
    8000231a:	16fd                	addi	a3,a3,-1
    8000231c:	03e68b63          	beq	a3,t5,80002352 <_ZN4core3num7dec2flt7decimal7Decimal10left_shift17he589bd36aac894fbE+0x108>
    80002320:	00168593          	addi	a1,a3,1
    80002324:	0a55fe63          	bgeu	a1,t0,800023e0 <_ZN4core3num7dec2flt7decimal7Decimal10left_shift17he589bd36aac894fbE+0x196>
    80002328:	00df85b3          	add	a1,t6,a3
    8000232c:	0015c583          	lbu	a1,1(a1)
    80002330:	00d804b3          	add	s1,a6,a3
    80002334:	011597b3          	sll	a5,a1,a7
    80002338:	97ba                	add	a5,a5,a4
    8000233a:	02c7b733          	mulhu	a4,a5,a2
    8000233e:	830d                	srli	a4,a4,0x3
    80002340:	027705b3          	mul	a1,a4,t2
    80002344:	95be                	add	a1,a1,a5
    80002346:	fdc4e6e3          	bltu	s1,t3,80002312 <_ZN4core3num7dec2flt7decimal7Decimal10left_shift17he589bd36aac894fbE+0xc8>
    8000234a:	d9e1                	beqz	a1,8000231a <_ZN4core3num7dec2flt7decimal7Decimal10left_shift17he589bd36aac894fbE+0xd0>
    8000234c:	31d50623          	sb	t4,780(a0)
    80002350:	b7e9                	j	8000231a <_ZN4core3num7dec2flt7decimal7Decimal10left_shift17he589bd36aac894fbE+0xd0>
    80002352:	48a9                	li	a7,10
    80002354:	0517f563          	bgeu	a5,a7,8000239e <_ZN4core3num7dec2flt7decimal7Decimal10left_shift17he589bd36aac894fbE+0x154>
    80002358:	610c                	ld	a1,0(a0)
    8000235a:	95c2                	add	a1,a1,a6
    8000235c:	30000693          	li	a3,768
    80002360:	862e                	mv	a2,a1
    80002362:	00d5e463          	bltu	a1,a3,8000236a <_ZN4core3num7dec2flt7decimal7Decimal10left_shift17he589bd36aac894fbE+0x120>
    80002366:	30000613          	li	a2,768
    8000236a:	30852683          	lw	a3,776(a0)
    8000236e:	e110                	sd	a2,0(a0)
    80002370:	96c2                	add	a3,a3,a6
    80002372:	30d52423          	sw	a3,776(a0)
    80002376:	cd99                	beqz	a1,80002394 <_ZN4core3num7dec2flt7decimal7Decimal10left_shift17he589bd36aac894fbE+0x14a>
    80002378:	00760593          	addi	a1,a2,7
    8000237c:	461d                	li	a2,7
    8000237e:	00b506b3          	add	a3,a0,a1
    80002382:	0006c683          	lbu	a3,0(a3)
    80002386:	e699                	bnez	a3,80002394 <_ZN4core3num7dec2flt7decimal7Decimal10left_shift17he589bd36aac894fbE+0x14a>
    80002388:	ff858693          	addi	a3,a1,-8
    8000238c:	15fd                	addi	a1,a1,-1
    8000238e:	e114                	sd	a3,0(a0)
    80002390:	fec597e3          	bne	a1,a2,8000237e <_ZN4core3num7dec2flt7decimal7Decimal10left_shift17he589bd36aac894fbE+0x134>
    80002394:	60e2                	ld	ra,24(sp)
    80002396:	6442                	ld	s0,16(sp)
    80002398:	64a2                	ld	s1,8(sp)
    8000239a:	6105                	addi	sp,sp,32
    8000239c:	8082                	ret
    8000239e:	ccccd5b7          	lui	a1,0xccccd
    800023a2:	ccd58e1b          	addiw	t3,a1,-819 # ffffffffcccccccd <_heap_end+0xffffffff44cccccd>
    800023a6:	020e1593          	slli	a1,t3,0x20
    800023aa:	9e2e                	add	t3,t3,a1
    800023ac:	5359                	li	t1,-10
    800023ae:	30000393          	li	t2,768
    800023b2:	4285                	li	t0,1
    800023b4:	87c2                	mv	a5,a6
    800023b6:	a031                	j	800023c2 <_ZN4core3num7dec2flt7decimal7Decimal10left_shift17he589bd36aac894fbE+0x178>
    800023b8:	96fe                	add	a3,a3,t6
    800023ba:	00c68023          	sb	a2,0(a3)
    800023be:	f915ede3          	bltu	a1,a7,80002358 <_ZN4core3num7dec2flt7decimal7Decimal10left_shift17he589bd36aac894fbE+0x10e>
    800023c2:	85ba                	mv	a1,a4
    800023c4:	86be                	mv	a3,a5
    800023c6:	17fd                	addi	a5,a5,-1
    800023c8:	03c73733          	mulhu	a4,a4,t3
    800023cc:	830d                	srli	a4,a4,0x3
    800023ce:	02670633          	mul	a2,a4,t1
    800023d2:	962e                	add	a2,a2,a1
    800023d4:	fe77e2e3          	bltu	a5,t2,800023b8 <_ZN4core3num7dec2flt7decimal7Decimal10left_shift17he589bd36aac894fbE+0x16e>
    800023d8:	d27d                	beqz	a2,800023be <_ZN4core3num7dec2flt7decimal7Decimal10left_shift17he589bd36aac894fbE+0x174>
    800023da:	30550623          	sb	t0,780(a0)
    800023de:	b7c5                	j	800023be <_ZN4core3num7dec2flt7decimal7Decimal10left_shift17he589bd36aac894fbE+0x174>
    800023e0:	0001c517          	auipc	a0,0x1c
    800023e4:	d8850613          	addi	a2,a0,-632 # 8001e168 <$d.495>
    800023e8:	30000593          	li	a1,768
    800023ec:	8536                	mv	a0,a3
    800023ee:	00009097          	auipc	ra,0x9
    800023f2:	590080e7          	jalr	1424(ra) # 8000b97e <_ZN4core9panicking18panic_bounds_check17h8b644d67c22404fcE>
    800023f6:	0001c517          	auipc	a0,0x1c
    800023fa:	3a250613          	addi	a2,a0,930 # 8001e798 <$d.503>
    800023fe:	30000513          	li	a0,768
    80002402:	30000593          	li	a1,768
    80002406:	00009097          	auipc	ra,0x9
    8000240a:	578080e7          	jalr	1400(ra) # 8000b97e <_ZN4core9panicking18panic_bounds_check17h8b644d67c22404fcE>
    8000240e:	0001c517          	auipc	a0,0x1c
    80002412:	37250613          	addi	a2,a0,882 # 8001e780 <$d.502>
    80002416:	51c00593          	li	a1,1308
    8000241a:	857a                	mv	a0,t5
    8000241c:	0000f097          	auipc	ra,0xf
    80002420:	91a080e7          	jalr	-1766(ra) # 80010d36 <_ZN4core5slice5index26slice_start_index_len_fail17he5b7f0dd70a228d8E>

0000000080002424 <_ZN4core3num7dec2flt7decimal7Decimal11right_shift17h1c05cd9d9e2abff4E>:
    80002424:	1141                	addi	sp,sp,-16
    80002426:	e406                	sd	ra,8(sp)
    80002428:	e022                	sd	s0,0(sp)
    8000242a:	0800                	addi	s0,sp,16
    8000242c:	4701                	li	a4,0
    8000242e:	4681                	li	a3,0
    80002430:	03f5fe13          	andi	t3,a1,63
    80002434:	00053283          	ld	t0,0(a0)
    80002438:	00850813          	addi	a6,a0,8
    8000243c:	d0000893          	li	a7,-768
    80002440:	45a9                	li	a1,10
    80002442:	87c2                	mv	a5,a6
    80002444:	00e28633          	add	a2,t0,a4
    80002448:	c205                	beqz	a2,80002468 <_ZN4core3num7dec2flt7decimal7Decimal11right_shift17h1c05cd9d9e2abff4E+0x44>
    8000244a:	13170563          	beq	a4,a7,80002574 <_ZN4core3num7dec2flt7decimal7Decimal11right_shift17h1c05cd9d9e2abff4E+0x150>
    8000244e:	0007c603          	lbu	a2,0(a5)
    80002452:	02b686b3          	mul	a3,a3,a1
    80002456:	96b2                	add	a3,a3,a2
    80002458:	01c6d633          	srl	a2,a3,t3
    8000245c:	177d                	addi	a4,a4,-1
    8000245e:	0785                	addi	a5,a5,1
    80002460:	d275                	beqz	a2,80002444 <_ZN4core3num7dec2flt7decimal7Decimal11right_shift17h1c05cd9d9e2abff4E+0x20>
    80002462:	40e00f33          	neg	t5,a4
    80002466:	a005                	j	80002486 <_ZN4core3num7dec2flt7decimal7Decimal11right_shift17h1c05cd9d9e2abff4E+0x62>
    80002468:	10068263          	beqz	a3,8000256c <_ZN4core3num7dec2flt7decimal7Decimal11right_shift17h1c05cd9d9e2abff4E+0x148>
    8000246c:	01c6d5b3          	srl	a1,a3,t3
    80002470:	c199                	beqz	a1,80002476 <_ZN4core3num7dec2flt7decimal7Decimal11right_shift17h1c05cd9d9e2abff4E+0x52>
    80002472:	8f16                	mv	t5,t0
    80002474:	a809                	j	80002486 <_ZN4core3num7dec2flt7decimal7Decimal11right_shift17h1c05cd9d9e2abff4E+0x62>
    80002476:	45a9                	li	a1,10
    80002478:	8f16                	mv	t5,t0
    8000247a:	02b686b3          	mul	a3,a3,a1
    8000247e:	01c6d733          	srl	a4,a3,t3
    80002482:	0f05                	addi	t5,t5,1
    80002484:	db7d                	beqz	a4,8000247a <_ZN4core3num7dec2flt7decimal7Decimal11right_shift17h1c05cd9d9e2abff4E+0x56>
    80002486:	30852583          	lw	a1,776(a0)
    8000248a:	41e585bb          	subw	a1,a1,t5
    8000248e:	2585                	addiw	a1,a1,1
    80002490:	80100713          	li	a4,-2047
    80002494:	30b52423          	sw	a1,776(a0)
    80002498:	00e5dc63          	bge	a1,a4,800024b0 <_ZN4core3num7dec2flt7decimal7Decimal11right_shift17h1c05cd9d9e2abff4E+0x8c>
    8000249c:	00053023          	sd	zero,0(a0)
    800024a0:	30052423          	sw	zero,776(a0)
    800024a4:	30050623          	sb	zero,780(a0)
    800024a8:	60a2                	ld	ra,8(sp)
    800024aa:	6402                	ld	s0,0(sp)
    800024ac:	0141                	addi	sp,sp,16
    800024ae:	8082                	ret
    800024b0:	55fd                	li	a1,-1
    800024b2:	01c595b3          	sll	a1,a1,t3
    800024b6:	fff5c893          	not	a7,a1
    800024ba:	085f7163          	bgeu	t5,t0,8000253c <_ZN4core3num7dec2flt7decimal7Decimal11right_shift17h1c05cd9d9e2abff4E+0x118>
    800024be:	4701                	li	a4,0
    800024c0:	41e28eb3          	sub	t4,t0,t5
    800024c4:	300f3593          	sltiu	a1,t5,768
    800024c8:	40b00333          	neg	t1,a1
    800024cc:	d00f0593          	addi	a1,t5,-768
    800024d0:	00b37333          	and	t1,t1,a1
    800024d4:	405f02b3          	sub	t0,t5,t0
    800024d8:	43a9                	li	t2,10
    800024da:	85c2                	mv	a1,a6
    800024dc:	0ae30863          	beq	t1,a4,8000258c <_ZN4core3num7dec2flt7decimal7Decimal11right_shift17h1c05cd9d9e2abff4E+0x168>
    800024e0:	01e587b3          	add	a5,a1,t5
    800024e4:	0007c783          	lbu	a5,0(a5)
    800024e8:	01c6d633          	srl	a2,a3,t3
    800024ec:	0116f6b3          	and	a3,a3,a7
    800024f0:	027686b3          	mul	a3,a3,t2
    800024f4:	96be                	add	a3,a3,a5
    800024f6:	00c58023          	sb	a2,0(a1)
    800024fa:	177d                	addi	a4,a4,-1
    800024fc:	0585                	addi	a1,a1,1
    800024fe:	fce29fe3          	bne	t0,a4,800024dc <_ZN4core3num7dec2flt7decimal7Decimal11right_shift17h1c05cd9d9e2abff4E+0xb8>
    80002502:	ce9d                	beqz	a3,80002540 <_ZN4core3num7dec2flt7decimal7Decimal11right_shift17h1c05cd9d9e2abff4E+0x11c>
    80002504:	4629                	li	a2,10
    80002506:	30000713          	li	a4,768
    8000250a:	4285                	li	t0,1
    8000250c:	a819                	j	80002522 <_ZN4core3num7dec2flt7decimal7Decimal11right_shift17h1c05cd9d9e2abff4E+0xfe>
    8000250e:	01d807b3          	add	a5,a6,t4
    80002512:	00b78023          	sb	a1,0(a5)
    80002516:	0e85                	addi	t4,t4,1
    80002518:	0116f5b3          	and	a1,a3,a7
    8000251c:	02c586b3          	mul	a3,a1,a2
    80002520:	ca99                	beqz	a3,80002536 <_ZN4core3num7dec2flt7decimal7Decimal11right_shift17h1c05cd9d9e2abff4E+0x112>
    80002522:	01c6d5b3          	srl	a1,a3,t3
    80002526:	feeee4e3          	bltu	t4,a4,8000250e <_ZN4core3num7dec2flt7decimal7Decimal11right_shift17h1c05cd9d9e2abff4E+0xea>
    8000252a:	0ff5f593          	zext.b	a1,a1
    8000252e:	d5ed                	beqz	a1,80002518 <_ZN4core3num7dec2flt7decimal7Decimal11right_shift17h1c05cd9d9e2abff4E+0xf4>
    80002530:	30550623          	sb	t0,780(a0)
    80002534:	b7d5                	j	80002518 <_ZN4core3num7dec2flt7decimal7Decimal11right_shift17h1c05cd9d9e2abff4E+0xf4>
    80002536:	01d53023          	sd	t4,0(a0)
    8000253a:	a039                	j	80002548 <_ZN4core3num7dec2flt7decimal7Decimal11right_shift17h1c05cd9d9e2abff4E+0x124>
    8000253c:	4e81                	li	t4,0
    8000253e:	f2f9                	bnez	a3,80002504 <_ZN4core3num7dec2flt7decimal7Decimal11right_shift17h1c05cd9d9e2abff4E+0xe0>
    80002540:	01d53023          	sd	t4,0(a0)
    80002544:	020e8463          	beqz	t4,8000256c <_ZN4core3num7dec2flt7decimal7Decimal11right_shift17h1c05cd9d9e2abff4E+0x148>
    80002548:	30000593          	li	a1,768
    8000254c:	05d5ec63          	bltu	a1,t4,800025a4 <_ZN4core3num7dec2flt7decimal7Decimal11right_shift17h1c05cd9d9e2abff4E+0x180>
    80002550:	007e8793          	addi	a5,t4,7
    80002554:	459d                	li	a1,7
    80002556:	00f50633          	add	a2,a0,a5
    8000255a:	00064603          	lbu	a2,0(a2)
    8000255e:	e619                	bnez	a2,8000256c <_ZN4core3num7dec2flt7decimal7Decimal11right_shift17h1c05cd9d9e2abff4E+0x148>
    80002560:	ff878613          	addi	a2,a5,-8
    80002564:	17fd                	addi	a5,a5,-1
    80002566:	e110                	sd	a2,0(a0)
    80002568:	feb797e3          	bne	a5,a1,80002556 <_ZN4core3num7dec2flt7decimal7Decimal11right_shift17h1c05cd9d9e2abff4E+0x132>
    8000256c:	60a2                	ld	ra,8(sp)
    8000256e:	6402                	ld	s0,0(sp)
    80002570:	0141                	addi	sp,sp,16
    80002572:	8082                	ret
    80002574:	0001c517          	auipc	a0,0x1c
    80002578:	c0c50613          	addi	a2,a0,-1012 # 8001e180 <$d.496>
    8000257c:	30000513          	li	a0,768
    80002580:	30000593          	li	a1,768
    80002584:	00009097          	auipc	ra,0x9
    80002588:	3fa080e7          	jalr	1018(ra) # 8000b97e <_ZN4core9panicking18panic_bounds_check17h8b644d67c22404fcE>
    8000258c:	40ef0533          	sub	a0,t5,a4
    80002590:	0001c597          	auipc	a1,0x1c
    80002594:	c0858613          	addi	a2,a1,-1016 # 8001e198 <$d.497>
    80002598:	30000593          	li	a1,768
    8000259c:	00009097          	auipc	ra,0x9
    800025a0:	3e2080e7          	jalr	994(ra) # 8000b97e <_ZN4core9panicking18panic_bounds_check17h8b644d67c22404fcE>
    800025a4:	fffe8513          	addi	a0,t4,-1
    800025a8:	0001c597          	auipc	a1,0x1c
    800025ac:	ba858613          	addi	a2,a1,-1112 # 8001e150 <$d.494>
    800025b0:	30000593          	li	a1,768
    800025b4:	00009097          	auipc	ra,0x9
    800025b8:	3ca080e7          	jalr	970(ra) # 8000b97e <_ZN4core9panicking18panic_bounds_check17h8b644d67c22404fcE>

00000000800025bc <_ZN4core3num7dec2flt7decimal13parse_decimal17hb7e13785878ffde2E>:
    800025bc:	cb010113          	addi	sp,sp,-848
    800025c0:	34113423          	sd	ra,840(sp)
    800025c4:	34813023          	sd	s0,832(sp)
    800025c8:	32913c23          	sd	s1,824(sp)
    800025cc:	33213823          	sd	s2,816(sp)
    800025d0:	33313423          	sd	s3,808(sp)
    800025d4:	33413023          	sd	s4,800(sp)
    800025d8:	31513c23          	sd	s5,792(sp)
    800025dc:	0e80                	addi	s0,sp,848
    800025de:	8ab2                	mv	s5,a2
    800025e0:	89ae                	mv	s3,a1
    800025e2:	892a                	mv	s2,a0
    800025e4:	cb840513          	addi	a0,s0,-840
    800025e8:	30d00613          	li	a2,781
    800025ec:	cb840a13          	addi	s4,s0,-840
    800025f0:	4581                	li	a1,0
    800025f2:	00019097          	auipc	ra,0x19
    800025f6:	132080e7          	jalr	306(ra) # 8001b724 <memset>
    800025fa:	020a8263          	beqz	s5,8000261e <_ZN4core3num7dec2flt7decimal13parse_decimal17hb7e13785878ffde2E+0x62>
    800025fe:	cc040e13          	addi	t3,s0,-832
    80002602:	015988b3          	add	a7,s3,s5
    80002606:	864e                	mv	a2,s3
    80002608:	86d6                	mv	a3,s5
    8000260a:	00064783          	lbu	a5,0(a2)
    8000260e:	fd078593          	addi	a1,a5,-48
    80002612:	0ff5f513          	zext.b	a0,a1
    80002616:	e929                	bnez	a0,80002668 <_ZN4core3num7dec2flt7decimal13parse_decimal17hb7e13785878ffde2E+0xac>
    80002618:	16fd                	addi	a3,a3,-1
    8000261a:	0605                	addi	a2,a2,1
    8000261c:	f6fd                	bnez	a3,8000260a <_ZN4core3num7dec2flt7decimal13parse_decimal17hb7e13785878ffde2E+0x4e>
    8000261e:	4581                	li	a1,0
    80002620:	00ba0533          	add	a0,s4,a1
    80002624:	0521                	addi	a0,a0,8
    80002626:	464d                	li	a2,19
    80002628:	8e0d                	sub	a2,a2,a1
    8000262a:	4581                	li	a1,0
    8000262c:	00019097          	auipc	ra,0x19
    80002630:	0f8080e7          	jalr	248(ra) # 8001b724 <memset>
    80002634:	cb840593          	addi	a1,s0,-840
    80002638:	31000613          	li	a2,784
    8000263c:	854a                	mv	a0,s2
    8000263e:	00019097          	auipc	ra,0x19
    80002642:	0d0080e7          	jalr	208(ra) # 8001b70e <memcpy>
    80002646:	34813083          	ld	ra,840(sp)
    8000264a:	34013403          	ld	s0,832(sp)
    8000264e:	33813483          	ld	s1,824(sp)
    80002652:	33013903          	ld	s2,816(sp)
    80002656:	32813983          	ld	s3,808(sp)
    8000265a:	32013a03          	ld	s4,800(sp)
    8000265e:	31813a83          	ld	s5,792(sp)
    80002662:	35010113          	addi	sp,sp,848
    80002666:	8082                	ret
    80002668:	4825                	li	a6,9
    8000266a:	04a86263          	bltu	a6,a0,800026ae <_ZN4core3num7dec2flt7decimal13parse_decimal17hb7e13785878ffde2E+0xf2>
    8000266e:	4501                	li	a0,0
    80002670:	0605                	addi	a2,a2,1
    80002672:	2ff00493          	li	s1,767
    80002676:	00a4e763          	bltu	s1,a0,80002684 <_ZN4core3num7dec2flt7decimal13parse_decimal17hb7e13785878ffde2E+0xc8>
    8000267a:	9572                	add	a0,a0,t3
    8000267c:	00b50023          	sb	a1,0(a0)
    80002680:	cb843503          	ld	a0,-840(s0)
    80002684:	0505                	addi	a0,a0,1
    80002686:	16fd                	addi	a3,a3,-1
    80002688:	caa43c23          	sd	a0,-840(s0)
    8000268c:	16068a63          	beqz	a3,80002800 <_ZN4core3num7dec2flt7decimal13parse_decimal17hb7e13785878ffde2E+0x244>
    80002690:	00064783          	lbu	a5,0(a2)
    80002694:	fd078593          	addi	a1,a5,-48
    80002698:	0ff5f713          	zext.b	a4,a1
    8000269c:	0605                	addi	a2,a2,1
    8000269e:	fce87ce3          	bgeu	a6,a4,80002676 <_ZN4core3num7dec2flt7decimal13parse_decimal17hb7e13785878ffde2E+0xba>
    800026a2:	167d                	addi	a2,a2,-1
    800026a4:	02e00593          	li	a1,46
    800026a8:	00b78863          	beq	a5,a1,800026b8 <_ZN4core3num7dec2flt7decimal13parse_decimal17hb7e13785878ffde2E+0xfc>
    800026ac:	aa91                	j	80002800 <_ZN4core3num7dec2flt7decimal13parse_decimal17hb7e13785878ffde2E+0x244>
    800026ae:	4501                	li	a0,0
    800026b0:	02e00593          	li	a1,46
    800026b4:	14b79663          	bne	a5,a1,80002800 <_ZN4core3num7dec2flt7decimal13parse_decimal17hb7e13785878ffde2E+0x244>
    800026b8:	fff68813          	addi	a6,a3,-1
    800026bc:	0605                	addi	a2,a2,1
    800026be:	10050e63          	beqz	a0,800027da <_ZN4core3num7dec2flt7decimal13parse_decimal17hb7e13785878ffde2E+0x21e>
    800026c2:	86c2                	mv	a3,a6
    800026c4:	45a1                	li	a1,8
    800026c6:	0cb6ef63          	bltu	a3,a1,800027a4 <_ZN4core3num7dec2flt7decimal13parse_decimal17hb7e13785878ffde2E+0x1e8>
    800026ca:	30000893          	li	a7,768
    800026ce:	464645b7          	lui	a1,0x46464
    800026d2:	6465829b          	addiw	t0,a1,1606 # 46464646 <_heap_size+0x3e51582e>
    800026d6:	02029593          	slli	a1,t0,0x20
    800026da:	92ae                	add	t0,t0,a1
    800026dc:	cfcfd5b7          	lui	a1,0xcfcfd
    800026e0:	fd05871b          	addiw	a4,a1,-48 # ffffffffcfcfcfd0 <_heap_end+0xffffffff47cfcfd0>
    800026e4:	02071593          	slli	a1,a4,0x20
    800026e8:	0002f797          	auipc	a5,0x2f
    800026ec:	9187be83          	ld	t4,-1768(a5) # 80031000 <_data_start>
    800026f0:	00b70f33          	add	t5,a4,a1
    800026f4:	30100313          	li	t1,769
    800026f8:	439d                	li	t2,7
    800026fa:	00850593          	addi	a1,a0,8
    800026fe:	0b15f463          	bgeu	a1,a7,800027a6 <_ZN4core3num7dec2flt7decimal13parse_decimal17hb7e13785878ffde2E+0x1ea>
    80002702:	00164583          	lbu	a1,1(a2)
    80002706:	00064483          	lbu	s1,0(a2)
    8000270a:	00264783          	lbu	a5,2(a2)
    8000270e:	00364703          	lbu	a4,3(a2)
    80002712:	05a2                	slli	a1,a1,0x8
    80002714:	8dc5                	or	a1,a1,s1
    80002716:	07c2                	slli	a5,a5,0x10
    80002718:	0762                	slli	a4,a4,0x18
    8000271a:	8f5d                	or	a4,a4,a5
    8000271c:	00b76fb3          	or	t6,a4,a1
    80002720:	00564703          	lbu	a4,5(a2)
    80002724:	00464783          	lbu	a5,4(a2)
    80002728:	00664483          	lbu	s1,6(a2)
    8000272c:	00764583          	lbu	a1,7(a2)
    80002730:	0722                	slli	a4,a4,0x8
    80002732:	8f5d                	or	a4,a4,a5
    80002734:	04c2                	slli	s1,s1,0x10
    80002736:	05e2                	slli	a1,a1,0x18
    80002738:	8dc5                	or	a1,a1,s1
    8000273a:	8dd9                	or	a1,a1,a4
    8000273c:	1582                	slli	a1,a1,0x20
    8000273e:	01f5e5b3          	or	a1,a1,t6
    80002742:	00558733          	add	a4,a1,t0
    80002746:	95fa                	add	a1,a1,t5
    80002748:	8f4d                	or	a4,a4,a1
    8000274a:	01d77733          	and	a4,a4,t4
    8000274e:	ef21                	bnez	a4,800027a6 <_ZN4core3num7dec2flt7decimal13parse_decimal17hb7e13785878ffde2E+0x1ea>
    80002750:	18657e63          	bgeu	a0,t1,800028ec <_ZN4core3num7dec2flt7decimal13parse_decimal17hb7e13785878ffde2E+0x330>
    80002754:	9572                	add	a0,a0,t3
    80002756:	0385d713          	srli	a4,a1,0x38
    8000275a:	00e503a3          	sb	a4,7(a0)
    8000275e:	0305d713          	srli	a4,a1,0x30
    80002762:	00e50323          	sb	a4,6(a0)
    80002766:	0285d713          	srli	a4,a1,0x28
    8000276a:	00e502a3          	sb	a4,5(a0)
    8000276e:	0205d713          	srli	a4,a1,0x20
    80002772:	00e50223          	sb	a4,4(a0)
    80002776:	0185d713          	srli	a4,a1,0x18
    8000277a:	00e501a3          	sb	a4,3(a0)
    8000277e:	0105d713          	srli	a4,a1,0x10
    80002782:	00e50123          	sb	a4,2(a0)
    80002786:	0085d713          	srli	a4,a1,0x8
    8000278a:	00e500a3          	sb	a4,1(a0)
    8000278e:	00b50023          	sb	a1,0(a0)
    80002792:	cb843503          	ld	a0,-840(s0)
    80002796:	0521                	addi	a0,a0,8
    80002798:	caa43c23          	sd	a0,-840(s0)
    8000279c:	16e1                	addi	a3,a3,-8
    8000279e:	0621                	addi	a2,a2,8
    800027a0:	f4d3ede3          	bltu	t2,a3,800026fa <_ZN4core3num7dec2flt7decimal13parse_decimal17hb7e13785878ffde2E+0x13e>
    800027a4:	cab1                	beqz	a3,800027f8 <_ZN4core3num7dec2flt7decimal13parse_decimal17hb7e13785878ffde2E+0x23c>
    800027a6:	45a5                	li	a1,9
    800027a8:	2ff00713          	li	a4,767
    800027ac:	a039                	j	800027ba <_ZN4core3num7dec2flt7decimal13parse_decimal17hb7e13785878ffde2E+0x1fe>
    800027ae:	16fd                	addi	a3,a3,-1
    800027b0:	0605                	addi	a2,a2,1
    800027b2:	0505                	addi	a0,a0,1
    800027b4:	caa43c23          	sd	a0,-840(s0)
    800027b8:	c2a1                	beqz	a3,800027f8 <_ZN4core3num7dec2flt7decimal13parse_decimal17hb7e13785878ffde2E+0x23c>
    800027ba:	00064783          	lbu	a5,0(a2)
    800027be:	fd078793          	addi	a5,a5,-48
    800027c2:	0ff7f493          	zext.b	s1,a5
    800027c6:	0295e963          	bltu	a1,s1,800027f8 <_ZN4core3num7dec2flt7decimal13parse_decimal17hb7e13785878ffde2E+0x23c>
    800027ca:	fea762e3          	bltu	a4,a0,800027ae <_ZN4core3num7dec2flt7decimal13parse_decimal17hb7e13785878ffde2E+0x1f2>
    800027ce:	9572                	add	a0,a0,t3
    800027d0:	00f50023          	sb	a5,0(a0)
    800027d4:	cb843503          	ld	a0,-840(s0)
    800027d8:	bfd9                	j	800027ae <_ZN4core3num7dec2flt7decimal13parse_decimal17hb7e13785878ffde2E+0x1f2>
    800027da:	00080e63          	beqz	a6,800027f6 <_ZN4core3num7dec2flt7decimal13parse_decimal17hb7e13785878ffde2E+0x23a>
    800027de:	03000593          	li	a1,48
    800027e2:	86c2                	mv	a3,a6
    800027e4:	00064703          	lbu	a4,0(a2)
    800027e8:	ecb71ee3          	bne	a4,a1,800026c4 <_ZN4core3num7dec2flt7decimal13parse_decimal17hb7e13785878ffde2E+0x108>
    800027ec:	16fd                	addi	a3,a3,-1
    800027ee:	0605                	addi	a2,a2,1
    800027f0:	faf5                	bnez	a3,800027e4 <_ZN4core3num7dec2flt7decimal13parse_decimal17hb7e13785878ffde2E+0x228>
    800027f2:	8646                	mv	a2,a7
    800027f4:	a011                	j	800027f8 <_ZN4core3num7dec2flt7decimal13parse_decimal17hb7e13785878ffde2E+0x23c>
    800027f6:	4681                	li	a3,0
    800027f8:	410685bb          	subw	a1,a3,a6
    800027fc:	fcb42023          	sw	a1,-64(s0)
    80002800:	c125                	beqz	a0,80002860 <_ZN4core3num7dec2flt7decimal13parse_decimal17hb7e13785878ffde2E+0x2a4>
    80002802:	40da87b3          	sub	a5,s5,a3
    80002806:	0edaed63          	bltu	s5,a3,80002900 <_ZN4core3num7dec2flt7decimal13parse_decimal17hb7e13785878ffde2E+0x344>
    8000280a:	4701                	li	a4,0
    8000280c:	02da8363          	beq	s5,a3,80002832 <_ZN4core3num7dec2flt7decimal13parse_decimal17hb7e13785878ffde2E+0x276>
    80002810:	19fd                	addi	s3,s3,-1
    80002812:	02e00893          	li	a7,46
    80002816:	03000813          	li	a6,48
    8000281a:	a021                	j	80002822 <_ZN4core3num7dec2flt7decimal13parse_decimal17hb7e13785878ffde2E+0x266>
    8000281c:	0705                	addi	a4,a4,1
    8000281e:	17fd                	addi	a5,a5,-1
    80002820:	cb89                	beqz	a5,80002832 <_ZN4core3num7dec2flt7decimal13parse_decimal17hb7e13785878ffde2E+0x276>
    80002822:	00f985b3          	add	a1,s3,a5
    80002826:	0005c483          	lbu	s1,0(a1)
    8000282a:	ff148ae3          	beq	s1,a7,8000281e <_ZN4core3num7dec2flt7decimal13parse_decimal17hb7e13785878ffde2E+0x262>
    8000282e:	ff0487e3          	beq	s1,a6,8000281c <_ZN4core3num7dec2flt7decimal13parse_decimal17hb7e13785878ffde2E+0x260>
    80002832:	fc042783          	lw	a5,-64(s0)
    80002836:	40e505b3          	sub	a1,a0,a4
    8000283a:	cab43c23          	sd	a1,-840(s0)
    8000283e:	972e                	add	a4,a4,a1
    80002840:	973e                	add	a4,a4,a5
    80002842:	30000513          	li	a0,768
    80002846:	fce42023          	sw	a4,-64(s0)
    8000284a:	00b57963          	bgeu	a0,a1,8000285c <_ZN4core3num7dec2flt7decimal13parse_decimal17hb7e13785878ffde2E+0x2a0>
    8000284e:	4585                	li	a1,1
    80002850:	fcb40223          	sb	a1,-60(s0)
    80002854:	caa43c23          	sd	a0,-840(s0)
    80002858:	30000593          	li	a1,768
    8000285c:	e681                	bnez	a3,80002864 <_ZN4core3num7dec2flt7decimal13parse_decimal17hb7e13785878ffde2E+0x2a8>
    8000285e:	a059                	j	800028e4 <_ZN4core3num7dec2flt7decimal13parse_decimal17hb7e13785878ffde2E+0x328>
    80002860:	4581                	li	a1,0
    80002862:	c2c9                	beqz	a3,800028e4 <_ZN4core3num7dec2flt7decimal13parse_decimal17hb7e13785878ffde2E+0x328>
    80002864:	00064503          	lbu	a0,0(a2)
    80002868:	02056513          	ori	a0,a0,32
    8000286c:	06500713          	li	a4,101
    80002870:	06e51a63          	bne	a0,a4,800028e4 <_ZN4core3num7dec2flt7decimal13parse_decimal17hb7e13785878ffde2E+0x328>
    80002874:	fff68713          	addi	a4,a3,-1
    80002878:	cb21                	beqz	a4,800028c8 <_ZN4core3num7dec2flt7decimal13parse_decimal17hb7e13785878ffde2E+0x30c>
    8000287a:	00160793          	addi	a5,a2,1
    8000287e:	0007c803          	lbu	a6,0(a5)
    80002882:	02d00513          	li	a0,45
    80002886:	00a80663          	beq	a6,a0,80002892 <_ZN4core3num7dec2flt7decimal13parse_decimal17hb7e13785878ffde2E+0x2d6>
    8000288a:	02b00513          	li	a0,43
    8000288e:	00a81763          	bne	a6,a0,8000289c <_ZN4core3num7dec2flt7decimal13parse_decimal17hb7e13785878ffde2E+0x2e0>
    80002892:	ffe68713          	addi	a4,a3,-2
    80002896:	cb1d                	beqz	a4,800028cc <_ZN4core3num7dec2flt7decimal13parse_decimal17hb7e13785878ffde2E+0x310>
    80002898:	00260793          	addi	a5,a2,2
    8000289c:	4601                	li	a2,0
    8000289e:	46a5                	li	a3,9
    800028a0:	48a9                	li	a7,10
    800028a2:	6541                	lui	a0,0x10
    800028a4:	a021                	j	800028ac <_ZN4core3num7dec2flt7decimal13parse_decimal17hb7e13785878ffde2E+0x2f0>
    800028a6:	177d                	addi	a4,a4,-1
    800028a8:	0785                	addi	a5,a5,1
    800028aa:	c315                	beqz	a4,800028ce <_ZN4core3num7dec2flt7decimal13parse_decimal17hb7e13785878ffde2E+0x312>
    800028ac:	0007c483          	lbu	s1,0(a5)
    800028b0:	fd048493          	addi	s1,s1,-48
    800028b4:	0ff4f493          	zext.b	s1,s1
    800028b8:	0096eb63          	bltu	a3,s1,800028ce <_ZN4core3num7dec2flt7decimal13parse_decimal17hb7e13785878ffde2E+0x312>
    800028bc:	fea655e3          	bge	a2,a0,800028a6 <_ZN4core3num7dec2flt7decimal13parse_decimal17hb7e13785878ffde2E+0x2ea>
    800028c0:	03160633          	mul	a2,a2,a7
    800028c4:	9e25                	addw	a2,a2,s1
    800028c6:	b7c5                	j	800028a6 <_ZN4core3num7dec2flt7decimal13parse_decimal17hb7e13785878ffde2E+0x2ea>
    800028c8:	4601                	li	a2,0
    800028ca:	a801                	j	800028da <_ZN4core3num7dec2flt7decimal13parse_decimal17hb7e13785878ffde2E+0x31e>
    800028cc:	4601                	li	a2,0
    800028ce:	02d00513          	li	a0,45
    800028d2:	00a81463          	bne	a6,a0,800028da <_ZN4core3num7dec2flt7decimal13parse_decimal17hb7e13785878ffde2E+0x31e>
    800028d6:	40c0063b          	negw	a2,a2
    800028da:	fc042503          	lw	a0,-64(s0)
    800028de:	9532                	add	a0,a0,a2
    800028e0:	fca42023          	sw	a0,-64(s0)
    800028e4:	4549                	li	a0,18
    800028e6:	d4b567e3          	bltu	a0,a1,80002634 <_ZN4core3num7dec2flt7decimal13parse_decimal17hb7e13785878ffde2E+0x78>
    800028ea:	bb1d                	j	80002620 <_ZN4core3num7dec2flt7decimal13parse_decimal17hb7e13785878ffde2E+0x64>
    800028ec:	0001c597          	auipc	a1,0x1c
    800028f0:	8c458613          	addi	a2,a1,-1852 # 8001e1b0 <$d.498>
    800028f4:	30000593          	li	a1,768
    800028f8:	0000e097          	auipc	ra,0xe
    800028fc:	43e080e7          	jalr	1086(ra) # 80010d36 <_ZN4core5slice5index26slice_start_index_len_fail17he5b7f0dd70a228d8E>
    80002900:	0001c517          	auipc	a0,0x1c
    80002904:	8c850613          	addi	a2,a0,-1848 # 8001e1c8 <$d.499>
    80002908:	853e                	mv	a0,a5
    8000290a:	85d6                	mv	a1,s5
    8000290c:	0000e097          	auipc	ra,0xe
    80002910:	49a080e7          	jalr	1178(ra) # 80010da6 <_ZN4core5slice5index24slice_end_index_len_fail17h495d568076616db5E>

0000000080002914 <_ZN59_$LT$f32$u20$as$u20$core..num..dec2flt..float..RawFloat$GT$15pow10_fast_path17hc275f7613fc18322E>:
    80002914:	1141                	addi	sp,sp,-16
    80002916:	e406                	sd	ra,8(sp)
    80002918:	e022                	sd	s0,0(sp)
    8000291a:	0800                	addi	s0,sp,16
    8000291c:	893d                	andi	a0,a0,15
    8000291e:	050a                	slli	a0,a0,0x2
    80002920:	0001c597          	auipc	a1,0x1c
    80002924:	ea458593          	addi	a1,a1,-348 # 8001e7c4 <$d.505>
    80002928:	952e                	add	a0,a0,a1
    8000292a:	00052507          	flw	fa0,0(a0)
    8000292e:	60a2                	ld	ra,8(sp)
    80002930:	6402                	ld	s0,0(sp)
    80002932:	0141                	addi	sp,sp,16
    80002934:	8082                	ret

0000000080002936 <_ZN59_$LT$f32$u20$as$u20$core..num..dec2flt..float..RawFloat$GT$8classify17h84edb688c20f2e39E>:
    80002936:	1141                	addi	sp,sp,-16
    80002938:	e406                	sd	ra,8(sp)
    8000293a:	e022                	sd	s0,0(sp)
    8000293c:	0800                	addi	s0,sp,16
    8000293e:	20a527d3          	fabs.s	fa5,fa0
    80002942:	7f800537          	lui	a0,0x7f800
    80002946:	f0050753          	fmv.w.x	fa4,a0
    8000294a:	a0e7a5d3          	feq.s	a1,fa5,fa4
    8000294e:	4505                	li	a0,1
    80002950:	c589                	beqz	a1,8000295a <_ZN59_$LT$f32$u20$as$u20$core..num..dec2flt..float..RawFloat$GT$8classify17h84edb688c20f2e39E+0x24>
    80002952:	60a2                	ld	ra,8(sp)
    80002954:	6402                	ld	s0,0(sp)
    80002956:	0141                	addi	sp,sp,16
    80002958:	8082                	ret
    8000295a:	a0a52553          	feq.s	a0,fa0,fa0
    8000295e:	d975                	beqz	a0,80002952 <_ZN59_$LT$f32$u20$as$u20$core..num..dec2flt..float..RawFloat$GT$8classify17h84edb688c20f2e39E+0x1c>
    80002960:	e0078553          	fmv.x.w	a0,fa5
    80002964:	cd09                	beqz	a0,8000297e <_ZN59_$LT$f32$u20$as$u20$core..num..dec2flt..float..RawFloat$GT$8classify17h84edb688c20f2e39E+0x48>
    80002966:	e0050553          	fmv.x.w	a0,fa0
    8000296a:	7f8005b7          	lui	a1,0x7f800
    8000296e:	8d6d                	and	a0,a0,a1
    80002970:	00a03533          	snez	a0,a0
    80002974:	050d                	addi	a0,a0,3 # 7f800003 <_heap_size+0x778b11eb>
    80002976:	60a2                	ld	ra,8(sp)
    80002978:	6402                	ld	s0,0(sp)
    8000297a:	0141                	addi	sp,sp,16
    8000297c:	8082                	ret
    8000297e:	4509                	li	a0,2
    80002980:	60a2                	ld	ra,8(sp)
    80002982:	6402                	ld	s0,0(sp)
    80002984:	0141                	addi	sp,sp,16
    80002986:	8082                	ret

0000000080002988 <_ZN59_$LT$f64$u20$as$u20$core..num..dec2flt..float..RawFloat$GT$15pow10_fast_path17h463d9cfed5f47680E>:
    80002988:	1141                	addi	sp,sp,-16
    8000298a:	e406                	sd	ra,8(sp)
    8000298c:	e022                	sd	s0,0(sp)
    8000298e:	0800                	addi	s0,sp,16
    80002990:	897d                	andi	a0,a0,31
    80002992:	050e                	slli	a0,a0,0x3
    80002994:	0001c597          	auipc	a1,0x1c
    80002998:	e7458593          	addi	a1,a1,-396 # 8001e808 <$d.506>
    8000299c:	952e                	add	a0,a0,a1
    8000299e:	2108                	fld	fa0,0(a0)
    800029a0:	60a2                	ld	ra,8(sp)
    800029a2:	6402                	ld	s0,0(sp)
    800029a4:	0141                	addi	sp,sp,16
    800029a6:	8082                	ret

00000000800029a8 <_ZN4core3num7dec2flt6lemire13compute_float17h45a6b4e8a570d48cE>:
    800029a8:	1141                	addi	sp,sp,-16
    800029aa:	e406                	sd	ra,8(sp)
    800029ac:	e022                	sd	s0,0(sp)
    800029ae:	0800                	addi	s0,sp,16
    800029b0:	fbf00693          	li	a3,-65
    800029b4:	862e                	mv	a2,a1
    800029b6:	4581                	li	a1,0
    800029b8:	00d54c63          	blt	a0,a3,800029d0 <_ZN4core3num7dec2flt6lemire13compute_float17h45a6b4e8a570d48cE+0x28>
    800029bc:	86ae                	mv	a3,a1
    800029be:	ca65                	beqz	a2,80002aae <_ZN4core3num7dec2flt6lemire13compute_float17h45a6b4e8a570d48cE+0x106>
    800029c0:	02600693          	li	a3,38
    800029c4:	0ff00593          	li	a1,255
    800029c8:	00a6d663          	bge	a3,a0,800029d4 <_ZN4core3num7dec2flt6lemire13compute_float17h45a6b4e8a570d48cE+0x2c>
    800029cc:	4681                	li	a3,0
    800029ce:	a0c5                	j	80002aae <_ZN4core3num7dec2flt6lemire13compute_float17h45a6b4e8a570d48cE+0x106>
    800029d0:	86ae                	mv	a3,a1
    800029d2:	a8f1                	j	80002aae <_ZN4core3num7dec2flt6lemire13compute_float17h45a6b4e8a570d48cE+0x106>
    800029d4:	c641                	beqz	a2,80002a5c <_ZN4core3num7dec2flt6lemire13compute_float17h45a6b4e8a570d48cE+0xb4>
    800029d6:	00165693          	srli	a3,a2,0x1
    800029da:	8ed1                	or	a3,a3,a2
    800029dc:	0026d713          	srli	a4,a3,0x2
    800029e0:	8ed9                	or	a3,a3,a4
    800029e2:	0046d713          	srli	a4,a3,0x4
    800029e6:	8ed9                	or	a3,a3,a4
    800029e8:	0086d713          	srli	a4,a3,0x8
    800029ec:	8ed9                	or	a3,a3,a4
    800029ee:	0106d713          	srli	a4,a3,0x10
    800029f2:	8ed9                	or	a3,a3,a4
    800029f4:	0206d713          	srli	a4,a3,0x20
    800029f8:	8ed9                	or	a3,a3,a4
    800029fa:	fff6c693          	not	a3,a3
    800029fe:	0016d813          	srli	a6,a3,0x1
    80002a02:	555557b7          	lui	a5,0x55555
    80002a06:	5557871b          	addiw	a4,a5,1365 # 55555555 <_heap_size+0x4d60673d>
    80002a0a:	02071793          	slli	a5,a4,0x20
    80002a0e:	973e                	add	a4,a4,a5
    80002a10:	00e87733          	and	a4,a6,a4
    80002a14:	8e99                	sub	a3,a3,a4
    80002a16:	33333737          	lui	a4,0x33333
    80002a1a:	3337071b          	addiw	a4,a4,819 # 33333333 <_heap_size+0x2b3e451b>
    80002a1e:	02071793          	slli	a5,a4,0x20
    80002a22:	973e                	add	a4,a4,a5
    80002a24:	00e6f7b3          	and	a5,a3,a4
    80002a28:	8289                	srli	a3,a3,0x2
    80002a2a:	8ef9                	and	a3,a3,a4
    80002a2c:	96be                	add	a3,a3,a5
    80002a2e:	0046d713          	srli	a4,a3,0x4
    80002a32:	96ba                	add	a3,a3,a4
    80002a34:	0f0f1737          	lui	a4,0xf0f1
    80002a38:	f0f7071b          	addiw	a4,a4,-241 # f0f0f0f <_heap_size+0x71a20f7>
    80002a3c:	02071793          	slli	a5,a4,0x20
    80002a40:	973e                	add	a4,a4,a5
    80002a42:	8ef9                	and	a3,a3,a4
    80002a44:	01010737          	lui	a4,0x1010
    80002a48:	1017071b          	addiw	a4,a4,257 # 1010101 <$d.6+0xfe3ff1>
    80002a4c:	02071793          	slli	a5,a4,0x20
    80002a50:	973e                	add	a4,a4,a5
    80002a52:	02e686b3          	mul	a3,a3,a4
    80002a56:	0386d893          	srli	a7,a3,0x38
    80002a5a:	a019                	j	80002a60 <_ZN4core3num7dec2flt6lemire13compute_float17h45a6b4e8a570d48cE+0xb8>
    80002a5c:	04000893          	li	a7,64
    80002a60:	15650693          	addi	a3,a0,342
    80002a64:	0692                	slli	a3,a3,0x4
    80002a66:	0001f717          	auipc	a4,0x1f
    80002a6a:	34270793          	addi	a5,a4,834 # 80021da8 <_ZN4core3num7dec2flt5table17POWER_OF_FIVE_12817hbb9d94b3a6e1f9f9E>
    80002a6e:	00d78833          	add	a6,a5,a3
    80002a72:	00083703          	ld	a4,0(a6)
    80002a76:	011616b3          	sll	a3,a2,a7
    80002a7a:	02d732b3          	mulhu	t0,a4,a3
    80002a7e:	567d                	li	a2,-1
    80002a80:	8269                	srli	a2,a2,0x1a
    80002a82:	00c2f7b3          	and	a5,t0,a2
    80002a86:	02d70733          	mul	a4,a4,a3
    80002a8a:	00c79a63          	bne	a5,a2,80002a9e <_ZN4core3num7dec2flt6lemire13compute_float17h45a6b4e8a570d48cE+0xf6>
    80002a8e:	00883603          	ld	a2,8(a6)
    80002a92:	02d63633          	mulhu	a2,a2,a3
    80002a96:	9732                	add	a4,a4,a2
    80002a98:	00c73633          	sltu	a2,a4,a2
    80002a9c:	92b2                	add	t0,t0,a2
    80002a9e:	5611                	li	a2,-28
    80002aa0:	00a64c63          	blt	a2,a0,80002ab8 <_ZN4core3num7dec2flt6lemire13compute_float17h45a6b4e8a570d48cE+0x110>
    80002aa4:	567d                	li	a2,-1
    80002aa6:	00c71963          	bne	a4,a2,80002ab8 <_ZN4core3num7dec2flt6lemire13compute_float17h45a6b4e8a570d48cE+0x110>
    80002aaa:	4681                	li	a3,0
    80002aac:	55fd                	li	a1,-1
    80002aae:	8536                	mv	a0,a3
    80002ab0:	60a2                	ld	ra,8(sp)
    80002ab2:	6402                	ld	s0,0(sp)
    80002ab4:	0141                	addi	sp,sp,16
    80002ab6:	8082                	ret
    80002ab8:	03f2d613          	srli	a2,t0,0x3f
    80002abc:	02660813          	addi	a6,a2,38
    80002ac0:	000356b7          	lui	a3,0x35
    80002ac4:	26a68693          	addi	a3,a3,618 # 3526a <$d.6+0x915a>
    80002ac8:	02d506b3          	mul	a3,a0,a3
    80002acc:	4106d69b          	sraiw	a3,a3,0x10
    80002ad0:	411686bb          	subw	a3,a3,a7
    80002ad4:	9636                	add	a2,a2,a3
    80002ad6:	03f60693          	addi	a3,a2,63
    80002ada:	f8200613          	li	a2,-126
    80002ade:	0102d7b3          	srl	a5,t0,a6
    80002ae2:	00c6db63          	bge	a3,a2,80002af8 <_ZN4core3num7dec2flt6lemire13compute_float17h45a6b4e8a570d48cE+0x150>
    80002ae6:	0006851b          	sext.w	a0,a3
    80002aea:	f4300593          	li	a1,-189
    80002aee:	06b57263          	bgeu	a0,a1,80002b52 <_ZN4core3num7dec2flt6lemire13compute_float17h45a6b4e8a570d48cE+0x1aa>
    80002af2:	4581                	li	a1,0
    80002af4:	4681                	li	a3,0
    80002af6:	bf65                	j	80002aae <_ZN4core3num7dec2flt6lemire13compute_float17h45a6b4e8a570d48cE+0x106>
    80002af8:	00273613          	sltiu	a2,a4,2
    80002afc:	0545                	addi	a0,a0,17
    80002afe:	01c53513          	sltiu	a0,a0,28
    80002b02:	8d71                	and	a0,a0,a2
    80002b04:	0037f613          	andi	a2,a5,3
    80002b08:	167d                	addi	a2,a2,-1
    80002b0a:	00163613          	seqz	a2,a2
    80002b0e:	8d71                	and	a0,a0,a2
    80002b10:	01079633          	sll	a2,a5,a6
    80002b14:	00564633          	xor	a2,a2,t0
    80002b18:	00163613          	seqz	a2,a2
    80002b1c:	8d71                	and	a0,a0,a2
    80002b1e:	c111                	beqz	a0,80002b22 <_ZN4core3num7dec2flt6lemire13compute_float17h45a6b4e8a570d48cE+0x17a>
    80002b20:	9bf1                	andi	a5,a5,-4
    80002b22:	0017f513          	andi	a0,a5,1
    80002b26:	97aa                	add	a5,a5,a0
    80002b28:	0197d513          	srli	a0,a5,0x19
    80002b2c:	00a03633          	snez	a2,a0
    80002b30:	96b2                	add	a3,a3,a2
    80002b32:	07f6851b          	addiw	a0,a3,127
    80002b36:	0fe00693          	li	a3,254
    80002b3a:	e8a6e9e3          	bltu	a3,a0,800029cc <_ZN4core3num7dec2flt6lemire13compute_float17h45a6b4e8a570d48cE+0x24>
    80002b3e:	8385                	srli	a5,a5,0x1
    80002b40:	167d                	addi	a2,a2,-1
    80002b42:	038005b7          	lui	a1,0x3800
    80002b46:	35fd                	addiw	a1,a1,-1 # 37fffff <$d.6+0x37d3eef>
    80002b48:	8dfd                	and	a1,a1,a5
    80002b4a:	00c5f6b3          	and	a3,a1,a2
    80002b4e:	85aa                	mv	a1,a0
    80002b50:	bfb9                	j	80002aae <_ZN4core3num7dec2flt6lemire13compute_float17h45a6b4e8a570d48cE+0x106>
    80002b52:	4509                	li	a0,2
    80002b54:	9d15                	subw	a0,a0,a3
    80002b56:	00a7d533          	srl	a0,a5,a0
    80002b5a:	00157593          	andi	a1,a0,1
    80002b5e:	952e                	add	a0,a0,a1
    80002b60:	00155693          	srli	a3,a0,0x1
    80002b64:	8161                	srli	a0,a0,0x18
    80002b66:	00a035b3          	snez	a1,a0
    80002b6a:	b791                	j	80002aae <_ZN4core3num7dec2flt6lemire13compute_float17h45a6b4e8a570d48cE+0x106>

0000000080002b6c <_ZN4core3num7dec2flt6lemire13compute_float17he4775b68b0b6a093E>:
    80002b6c:	1141                	addi	sp,sp,-16
    80002b6e:	e406                	sd	ra,8(sp)
    80002b70:	e022                	sd	s0,0(sp)
    80002b72:	0800                	addi	s0,sp,16
    80002b74:	eaa00693          	li	a3,-342
    80002b78:	862e                	mv	a2,a1
    80002b7a:	4581                	li	a1,0
    80002b7c:	00d54c63          	blt	a0,a3,80002b94 <_ZN4core3num7dec2flt6lemire13compute_float17he4775b68b0b6a093E+0x28>
    80002b80:	86ae                	mv	a3,a1
    80002b82:	ca65                	beqz	a2,80002c72 <_ZN4core3num7dec2flt6lemire13compute_float17he4775b68b0b6a093E+0x106>
    80002b84:	13400693          	li	a3,308
    80002b88:	7ff00593          	li	a1,2047
    80002b8c:	00a6d663          	bge	a3,a0,80002b98 <_ZN4core3num7dec2flt6lemire13compute_float17he4775b68b0b6a093E+0x2c>
    80002b90:	4681                	li	a3,0
    80002b92:	a0c5                	j	80002c72 <_ZN4core3num7dec2flt6lemire13compute_float17he4775b68b0b6a093E+0x106>
    80002b94:	86ae                	mv	a3,a1
    80002b96:	a8f1                	j	80002c72 <_ZN4core3num7dec2flt6lemire13compute_float17he4775b68b0b6a093E+0x106>
    80002b98:	c641                	beqz	a2,80002c20 <_ZN4core3num7dec2flt6lemire13compute_float17he4775b68b0b6a093E+0xb4>
    80002b9a:	00165693          	srli	a3,a2,0x1
    80002b9e:	8ed1                	or	a3,a3,a2
    80002ba0:	0026d713          	srli	a4,a3,0x2
    80002ba4:	8ed9                	or	a3,a3,a4
    80002ba6:	0046d713          	srli	a4,a3,0x4
    80002baa:	8ed9                	or	a3,a3,a4
    80002bac:	0086d713          	srli	a4,a3,0x8
    80002bb0:	8ed9                	or	a3,a3,a4
    80002bb2:	0106d713          	srli	a4,a3,0x10
    80002bb6:	8ed9                	or	a3,a3,a4
    80002bb8:	0206d713          	srli	a4,a3,0x20
    80002bbc:	8ed9                	or	a3,a3,a4
    80002bbe:	fff6c693          	not	a3,a3
    80002bc2:	0016d813          	srli	a6,a3,0x1
    80002bc6:	555557b7          	lui	a5,0x55555
    80002bca:	5557871b          	addiw	a4,a5,1365 # 55555555 <_heap_size+0x4d60673d>
    80002bce:	02071793          	slli	a5,a4,0x20
    80002bd2:	973e                	add	a4,a4,a5
    80002bd4:	00e87733          	and	a4,a6,a4
    80002bd8:	8e99                	sub	a3,a3,a4
    80002bda:	33333737          	lui	a4,0x33333
    80002bde:	3337071b          	addiw	a4,a4,819 # 33333333 <_heap_size+0x2b3e451b>
    80002be2:	02071793          	slli	a5,a4,0x20
    80002be6:	973e                	add	a4,a4,a5
    80002be8:	00e6f7b3          	and	a5,a3,a4
    80002bec:	8289                	srli	a3,a3,0x2
    80002bee:	8ef9                	and	a3,a3,a4
    80002bf0:	96be                	add	a3,a3,a5
    80002bf2:	0046d713          	srli	a4,a3,0x4
    80002bf6:	96ba                	add	a3,a3,a4
    80002bf8:	0f0f1737          	lui	a4,0xf0f1
    80002bfc:	f0f7071b          	addiw	a4,a4,-241 # f0f0f0f <_heap_size+0x71a20f7>
    80002c00:	02071793          	slli	a5,a4,0x20
    80002c04:	973e                	add	a4,a4,a5
    80002c06:	8ef9                	and	a3,a3,a4
    80002c08:	01010737          	lui	a4,0x1010
    80002c0c:	1017071b          	addiw	a4,a4,257 # 1010101 <$d.6+0xfe3ff1>
    80002c10:	02071793          	slli	a5,a4,0x20
    80002c14:	973e                	add	a4,a4,a5
    80002c16:	02e686b3          	mul	a3,a3,a4
    80002c1a:	0386d893          	srli	a7,a3,0x38
    80002c1e:	a019                	j	80002c24 <_ZN4core3num7dec2flt6lemire13compute_float17he4775b68b0b6a093E+0xb8>
    80002c20:	04000893          	li	a7,64
    80002c24:	15650693          	addi	a3,a0,342
    80002c28:	0692                	slli	a3,a3,0x4
    80002c2a:	0001f717          	auipc	a4,0x1f
    80002c2e:	17e70793          	addi	a5,a4,382 # 80021da8 <_ZN4core3num7dec2flt5table17POWER_OF_FIVE_12817hbb9d94b3a6e1f9f9E>
    80002c32:	97b6                	add	a5,a5,a3
    80002c34:	6398                	ld	a4,0(a5)
    80002c36:	011616b3          	sll	a3,a2,a7
    80002c3a:	02d732b3          	mulhu	t0,a4,a3
    80002c3e:	1ff2f613          	andi	a2,t0,511
    80002c42:	1ff00813          	li	a6,511
    80002c46:	02d70733          	mul	a4,a4,a3
    80002c4a:	01061963          	bne	a2,a6,80002c5c <_ZN4core3num7dec2flt6lemire13compute_float17he4775b68b0b6a093E+0xf0>
    80002c4e:	6790                	ld	a2,8(a5)
    80002c50:	02d63633          	mulhu	a2,a2,a3
    80002c54:	9732                	add	a4,a4,a2
    80002c56:	00c73633          	sltu	a2,a4,a2
    80002c5a:	92b2                	add	t0,t0,a2
    80002c5c:	01b50613          	addi	a2,a0,27
    80002c60:	05300693          	li	a3,83
    80002c64:	00d66c63          	bltu	a2,a3,80002c7c <_ZN4core3num7dec2flt6lemire13compute_float17he4775b68b0b6a093E+0x110>
    80002c68:	567d                	li	a2,-1
    80002c6a:	00c71963          	bne	a4,a2,80002c7c <_ZN4core3num7dec2flt6lemire13compute_float17he4775b68b0b6a093E+0x110>
    80002c6e:	4681                	li	a3,0
    80002c70:	55fd                	li	a1,-1
    80002c72:	8536                	mv	a0,a3
    80002c74:	60a2                	ld	ra,8(sp)
    80002c76:	6402                	ld	s0,0(sp)
    80002c78:	0141                	addi	sp,sp,16
    80002c7a:	8082                	ret
    80002c7c:	03f2d613          	srli	a2,t0,0x3f
    80002c80:	00960813          	addi	a6,a2,9
    80002c84:	000356b7          	lui	a3,0x35
    80002c88:	26a68693          	addi	a3,a3,618 # 3526a <$d.6+0x915a>
    80002c8c:	02d506b3          	mul	a3,a0,a3
    80002c90:	4106d69b          	sraiw	a3,a3,0x10
    80002c94:	411686bb          	subw	a3,a3,a7
    80002c98:	9636                	add	a2,a2,a3
    80002c9a:	03f60693          	addi	a3,a2,63
    80002c9e:	c0200613          	li	a2,-1022
    80002ca2:	0102d7b3          	srl	a5,t0,a6
    80002ca6:	00c6db63          	bge	a3,a2,80002cbc <_ZN4core3num7dec2flt6lemire13compute_float17he4775b68b0b6a093E+0x150>
    80002caa:	0006851b          	sext.w	a0,a3
    80002cae:	bc300593          	li	a1,-1085
    80002cb2:	06b57263          	bgeu	a0,a1,80002d16 <_ZN4core3num7dec2flt6lemire13compute_float17he4775b68b0b6a093E+0x1aa>
    80002cb6:	4581                	li	a1,0
    80002cb8:	4681                	li	a3,0
    80002cba:	bf65                	j	80002c72 <_ZN4core3num7dec2flt6lemire13compute_float17he4775b68b0b6a093E+0x106>
    80002cbc:	00273613          	sltiu	a2,a4,2
    80002cc0:	0511                	addi	a0,a0,4
    80002cc2:	01c53513          	sltiu	a0,a0,28
    80002cc6:	8d71                	and	a0,a0,a2
    80002cc8:	0037f613          	andi	a2,a5,3
    80002ccc:	167d                	addi	a2,a2,-1
    80002cce:	00163613          	seqz	a2,a2
    80002cd2:	8d71                	and	a0,a0,a2
    80002cd4:	01079633          	sll	a2,a5,a6
    80002cd8:	00564633          	xor	a2,a2,t0
    80002cdc:	00163613          	seqz	a2,a2
    80002ce0:	8d71                	and	a0,a0,a2
    80002ce2:	c111                	beqz	a0,80002ce6 <_ZN4core3num7dec2flt6lemire13compute_float17he4775b68b0b6a093E+0x17a>
    80002ce4:	9bf1                	andi	a5,a5,-4
    80002ce6:	0017f513          	andi	a0,a5,1
    80002cea:	97aa                	add	a5,a5,a0
    80002cec:	0367d513          	srli	a0,a5,0x36
    80002cf0:	00a03633          	snez	a2,a0
    80002cf4:	96b2                	add	a3,a3,a2
    80002cf6:	3ff6851b          	addiw	a0,a3,1023
    80002cfa:	7fe00693          	li	a3,2046
    80002cfe:	e8a6e9e3          	bltu	a3,a0,80002b90 <_ZN4core3num7dec2flt6lemire13compute_float17he4775b68b0b6a093E+0x24>
    80002d02:	8385                	srli	a5,a5,0x1
    80002d04:	167d                	addi	a2,a2,-1
    80002d06:	45bd                	li	a1,15
    80002d08:	15d2                	slli	a1,a1,0x34
    80002d0a:	15fd                	addi	a1,a1,-1
    80002d0c:	8dfd                	and	a1,a1,a5
    80002d0e:	00c5f6b3          	and	a3,a1,a2
    80002d12:	85aa                	mv	a1,a0
    80002d14:	bfb9                	j	80002c72 <_ZN4core3num7dec2flt6lemire13compute_float17he4775b68b0b6a093E+0x106>
    80002d16:	4509                	li	a0,2
    80002d18:	9d15                	subw	a0,a0,a3
    80002d1a:	00a7d533          	srl	a0,a5,a0
    80002d1e:	00157593          	andi	a1,a0,1
    80002d22:	952e                	add	a0,a0,a1
    80002d24:	00155693          	srli	a3,a0,0x1
    80002d28:	9155                	srli	a0,a0,0x35
    80002d2a:	00a035b3          	snez	a1,a0
    80002d2e:	b791                	j	80002c72 <_ZN4core3num7dec2flt6lemire13compute_float17he4775b68b0b6a093E+0x106>

0000000080002d30 <_ZN4core3num7dec2flt6lemire22compute_product_approx17h94052f2db2037360E>:
    80002d30:	15650513          	addi	a0,a0,342
    80002d34:	28a00693          	li	a3,650
    80002d38:	04a6e163          	bltu	a3,a0,80002d7a <_ZN4core3num7dec2flt6lemire22compute_product_approx17h94052f2db2037360E+0x4a>
    80002d3c:	04063713          	sltiu	a4,a2,64
    80002d40:	57fd                	li	a5,-1
    80002d42:	0512                	slli	a0,a0,0x4
    80002d44:	0001f697          	auipc	a3,0x1f
    80002d48:	06468693          	addi	a3,a3,100 # 80021da8 <_ZN4core3num7dec2flt5table17POWER_OF_FIVE_12817hbb9d94b3a6e1f9f9E>
    80002d4c:	96aa                	add	a3,a3,a0
    80002d4e:	6288                	ld	a0,0(a3)
    80002d50:	00c7d633          	srl	a2,a5,a2
    80002d54:	177d                	addi	a4,a4,-1
    80002d56:	8f51                	or	a4,a4,a2
    80002d58:	02b53633          	mulhu	a2,a0,a1
    80002d5c:	00c777b3          	and	a5,a4,a2
    80002d60:	02b50533          	mul	a0,a0,a1
    80002d64:	00e79963          	bne	a5,a4,80002d76 <_ZN4core3num7dec2flt6lemire22compute_product_approx17h94052f2db2037360E+0x46>
    80002d68:	6694                	ld	a3,8(a3)
    80002d6a:	02b6b5b3          	mulhu	a1,a3,a1
    80002d6e:	952e                	add	a0,a0,a1
    80002d70:	00b535b3          	sltu	a1,a0,a1
    80002d74:	962e                	add	a2,a2,a1
    80002d76:	85b2                	mv	a1,a2
    80002d78:	8082                	ret
    80002d7a:	1141                	addi	sp,sp,-16
    80002d7c:	e406                	sd	ra,8(sp)
    80002d7e:	e022                	sd	s0,0(sp)
    80002d80:	0800                	addi	s0,sp,16
    80002d82:	0001c597          	auipc	a1,0x1c
    80002d86:	bae58613          	addi	a2,a1,-1106 # 8001e930 <$d.508>
    80002d8a:	28b00593          	li	a1,651
    80002d8e:	00009097          	auipc	ra,0x9
    80002d92:	bf0080e7          	jalr	-1040(ra) # 8000b97e <_ZN4core9panicking18panic_bounds_check17h8b644d67c22404fcE>

0000000080002d96 <_ZN4core3num7dec2flt5parse12parse_number17h39618f1bbfb1114dE>:
    80002d96:	711d                	addi	sp,sp,-96
    80002d98:	ec86                	sd	ra,88(sp)
    80002d9a:	e8a2                	sd	s0,80(sp)
    80002d9c:	e4a6                	sd	s1,72(sp)
    80002d9e:	e0ca                	sd	s2,64(sp)
    80002da0:	fc4e                	sd	s3,56(sp)
    80002da2:	f852                	sd	s4,48(sp)
    80002da4:	f456                	sd	s5,40(sp)
    80002da6:	f05a                	sd	s6,32(sp)
    80002da8:	ec5e                	sd	s7,24(sp)
    80002daa:	e862                	sd	s8,16(sp)
    80002dac:	e466                	sd	s9,8(sp)
    80002dae:	1080                	addi	s0,sp,96
    80002db0:	4281                	li	t0,0
    80002db2:	46a1                	li	a3,8
    80002db4:	0cd66d63          	bltu	a2,a3,80002e8e <_ZN4core3num7dec2flt5parse12parse_number17h39618f1bbfb1114dE+0xf8>
    80002db8:	cfcfd6b7          	lui	a3,0xcfcfd
    80002dbc:	fd06881b          	addiw	a6,a3,-48 # ffffffffcfcfcfd0 <_heap_end+0xffffffff47cfcfd0>
    80002dc0:	02081693          	slli	a3,a6,0x20
    80002dc4:	9836                	add	a6,a6,a3
    80002dc6:	0002e697          	auipc	a3,0x2e
    80002dca:	2426b883          	ld	a7,578(a3) # 80031008 <_data_start+0x8>
    80002dce:	464646b7          	lui	a3,0x46464
    80002dd2:	64668e1b          	addiw	t3,a3,1606 # 46464646 <_heap_size+0x3e51582e>
    80002dd6:	020e1693          	slli	a3,t3,0x20
    80002dda:	9e36                	add	t3,t3,a3
    80002ddc:	03d096b7          	lui	a3,0x3d09
    80002de0:	06ea                	slli	a3,a3,0x1a
    80002de2:	06468313          	addi	t1,a3,100 # 3d09064 <$d.6+0x3cdcf54>
    80002de6:	27100693          	li	a3,625
    80002dea:	1692                	slli	a3,a3,0x24
    80002dec:	00168f93          	addi	t6,a3,1
    80002df0:	0ff00693          	li	a3,255
    80002df4:	1682                	slli	a3,a3,0x20
    80002df6:	0ff68993          	addi	s3,a3,255
    80002dfa:	05f5e6b7          	lui	a3,0x5f5e
    80002dfe:	1006891b          	addiw	s2,a3,256 # 5f5e100 <$d.6+0x5f31ff0>
    80002e02:	4ea9                	li	t4,10
    80002e04:	4f1d                	li	t5,7
    80002e06:	86ae                	mv	a3,a1
    80002e08:	83b2                	mv	t2,a2
    80002e0a:	0016c783          	lbu	a5,1(a3)
    80002e0e:	0006ca03          	lbu	s4,0(a3)
    80002e12:	0026c483          	lbu	s1,2(a3)
    80002e16:	0036c703          	lbu	a4,3(a3)
    80002e1a:	07a2                	slli	a5,a5,0x8
    80002e1c:	0147e7b3          	or	a5,a5,s4
    80002e20:	04c2                	slli	s1,s1,0x10
    80002e22:	0762                	slli	a4,a4,0x18
    80002e24:	8f45                	or	a4,a4,s1
    80002e26:	00f76a33          	or	s4,a4,a5
    80002e2a:	0056ca83          	lbu	s5,5(a3)
    80002e2e:	0046c483          	lbu	s1,4(a3)
    80002e32:	0066c703          	lbu	a4,6(a3)
    80002e36:	0076c783          	lbu	a5,7(a3)
    80002e3a:	0aa2                	slli	s5,s5,0x8
    80002e3c:	009ae4b3          	or	s1,s5,s1
    80002e40:	0742                	slli	a4,a4,0x10
    80002e42:	07e2                	slli	a5,a5,0x18
    80002e44:	8f5d                	or	a4,a4,a5
    80002e46:	8f45                	or	a4,a4,s1
    80002e48:	1702                	slli	a4,a4,0x20
    80002e4a:	014767b3          	or	a5,a4,s4
    80002e4e:	01c78733          	add	a4,a5,t3
    80002e52:	97c2                	add	a5,a5,a6
    80002e54:	8f5d                	or	a4,a4,a5
    80002e56:	01177733          	and	a4,a4,a7
    80002e5a:	ef0d                	bnez	a4,80002e94 <_ZN4core3num7dec2flt5parse12parse_number17h39618f1bbfb1114dE+0xfe>
    80002e5c:	032282b3          	mul	t0,t0,s2
    80002e60:	03d78733          	mul	a4,a5,t4
    80002e64:	83a1                	srli	a5,a5,0x8
    80002e66:	973e                	add	a4,a4,a5
    80002e68:	013777b3          	and	a5,a4,s3
    80002e6c:	026787b3          	mul	a5,a5,t1
    80002e70:	8341                	srli	a4,a4,0x10
    80002e72:	01377733          	and	a4,a4,s3
    80002e76:	03f70733          	mul	a4,a4,t6
    80002e7a:	973e                	add	a4,a4,a5
    80002e7c:	9301                	srli	a4,a4,0x20
    80002e7e:	92ba                	add	t0,t0,a4
    80002e80:	13e1                	addi	t2,t2,-8
    80002e82:	06a1                	addi	a3,a3,8
    80002e84:	f87f63e3          	bltu	t5,t2,80002e0a <_ZN4core3num7dec2flt5parse12parse_number17h39618f1bbfb1114dE+0x74>
    80002e88:	00039663          	bnez	t2,80002e94 <_ZN4core3num7dec2flt5parse12parse_number17h39618f1bbfb1114dE+0xfe>
    80002e8c:	a03d                	j	80002eba <_ZN4core3num7dec2flt5parse12parse_number17h39618f1bbfb1114dE+0x124>
    80002e8e:	83b2                	mv	t2,a2
    80002e90:	86ae                	mv	a3,a1
    80002e92:	c605                	beqz	a2,80002eba <_ZN4core3num7dec2flt5parse12parse_number17h39618f1bbfb1114dE+0x124>
    80002e94:	4701                	li	a4,0
    80002e96:	48a5                	li	a7,9
    80002e98:	4829                	li	a6,10
    80002e9a:	00e68b33          	add	s6,a3,a4
    80002e9e:	000b4483          	lbu	s1,0(s6)
    80002ea2:	fd048793          	addi	a5,s1,-48
    80002ea6:	0ff7f793          	zext.b	a5,a5
    80002eaa:	02f8e763          	bltu	a7,a5,80002ed8 <_ZN4core3num7dec2flt5parse12parse_number17h39618f1bbfb1114dE+0x142>
    80002eae:	030282b3          	mul	t0,t0,a6
    80002eb2:	0705                	addi	a4,a4,1
    80002eb4:	92be                	add	t0,t0,a5
    80002eb6:	fee392e3          	bne	t2,a4,80002e9a <_ZN4core3num7dec2flt5parse12parse_number17h39618f1bbfb1114dE+0x104>
    80002eba:	1a060c63          	beqz	a2,80003072 <_ZN4core3num7dec2flt5parse12parse_number17h39618f1bbfb1114dE+0x2dc>
    80002ebe:	4801                	li	a6,0
    80002ec0:	4f01                	li	t5,0
    80002ec2:	4881                	li	a7,0
    80002ec4:	4305                	li	t1,1
    80002ec6:	8fb2                	mv	t6,a2
    80002ec8:	46d1                	li	a3,20
    80002eca:	12dfd363          	bge	t6,a3,80002ff0 <_ZN4core3num7dec2flt5parse12parse_number17h39618f1bbfb1114dE+0x25a>
    80002ece:	4581                	li	a1,0
    80002ed0:	4489                	li	s1,2
    80002ed2:	28031463          	bnez	t1,8000315a <_ZN4core3num7dec2flt5parse12parse_number17h39618f1bbfb1114dE+0x3c4>
    80002ed6:	ac49                	j	80003168 <_ZN4core3num7dec2flt5parse12parse_number17h39618f1bbfb1114dE+0x3d2>
    80002ed8:	02e00793          	li	a5,46
    80002edc:	40e38833          	sub	a6,t2,a4
    80002ee0:	18f49b63          	bne	s1,a5,80003076 <_ZN4core3num7dec2flt5parse12parse_number17h39618f1bbfb1114dE+0x2e0>
    80002ee4:	fff74893          	not	a7,a4
    80002ee8:	00788333          	add	t1,a7,t2
    80002eec:	96ba                	add	a3,a3,a4
    80002eee:	47a1                	li	a5,8
    80002ef0:	00168b13          	addi	s6,a3,1
    80002ef4:	0cf36863          	bltu	t1,a5,80002fc4 <_ZN4core3num7dec2flt5parse12parse_number17h39618f1bbfb1114dE+0x22e>
    80002ef8:	cfcfd6b7          	lui	a3,0xcfcfd
    80002efc:	fd068e1b          	addiw	t3,a3,-48 # ffffffffcfcfcfd0 <_heap_end+0xffffffff47cfcfd0>
    80002f00:	020e1693          	slli	a3,t3,0x20
    80002f04:	9e36                	add	t3,t3,a3
    80002f06:	0002e697          	auipc	a3,0x2e
    80002f0a:	1026be83          	ld	t4,258(a3) # 80031008 <_data_start+0x8>
    80002f0e:	464646b7          	lui	a3,0x46464
    80002f12:	64668f9b          	addiw	t6,a3,1606 # 46464646 <_heap_size+0x3e51582e>
    80002f16:	020f9693          	slli	a3,t6,0x20
    80002f1a:	9fb6                	add	t6,t6,a3
    80002f1c:	03d096b7          	lui	a3,0x3d09
    80002f20:	06ea                	slli	a3,a3,0x1a
    80002f22:	06468f13          	addi	t5,a3,100 # 3d09064 <$d.6+0x3cdcf54>
    80002f26:	27100693          	li	a3,625
    80002f2a:	1692                	slli	a3,a3,0x24
    80002f2c:	00168913          	addi	s2,a3,1
    80002f30:	0ff00693          	li	a3,255
    80002f34:	1682                	slli	a3,a3,0x20
    80002f36:	0ff68b93          	addi	s7,a3,255
    80002f3a:	05f5e6b7          	lui	a3,0x5f5e
    80002f3e:	10068a9b          	addiw	s5,a3,256 # 5f5e100 <$d.6+0x5f31ff0>
    80002f42:	49a9                	li	s3,10
    80002f44:	4a1d                	li	s4,7
    80002f46:	001b4c03          	lbu	s8,1(s6)
    80002f4a:	000b4783          	lbu	a5,0(s6)
    80002f4e:	002b4483          	lbu	s1,2(s6)
    80002f52:	003b4683          	lbu	a3,3(s6)
    80002f56:	0c22                	slli	s8,s8,0x8
    80002f58:	00fc67b3          	or	a5,s8,a5
    80002f5c:	04c2                	slli	s1,s1,0x10
    80002f5e:	06e2                	slli	a3,a3,0x18
    80002f60:	8ec5                	or	a3,a3,s1
    80002f62:	00f6ec33          	or	s8,a3,a5
    80002f66:	005b4c83          	lbu	s9,5(s6)
    80002f6a:	004b4483          	lbu	s1,4(s6)
    80002f6e:	006b4683          	lbu	a3,6(s6)
    80002f72:	007b4783          	lbu	a5,7(s6)
    80002f76:	0ca2                	slli	s9,s9,0x8
    80002f78:	009ce4b3          	or	s1,s9,s1
    80002f7c:	06c2                	slli	a3,a3,0x10
    80002f7e:	07e2                	slli	a5,a5,0x18
    80002f80:	8edd                	or	a3,a3,a5
    80002f82:	8ec5                	or	a3,a3,s1
    80002f84:	1682                	slli	a3,a3,0x20
    80002f86:	0186e6b3          	or	a3,a3,s8
    80002f8a:	01f687b3          	add	a5,a3,t6
    80002f8e:	96f2                	add	a3,a3,t3
    80002f90:	8fd5                	or	a5,a5,a3
    80002f92:	01d7f7b3          	and	a5,a5,t4
    80002f96:	eb8d                	bnez	a5,80002fc8 <_ZN4core3num7dec2flt5parse12parse_number17h39618f1bbfb1114dE+0x232>
    80002f98:	035282b3          	mul	t0,t0,s5
    80002f9c:	033687b3          	mul	a5,a3,s3
    80002fa0:	82a1                	srli	a3,a3,0x8
    80002fa2:	96be                	add	a3,a3,a5
    80002fa4:	0176f7b3          	and	a5,a3,s7
    80002fa8:	03e787b3          	mul	a5,a5,t5
    80002fac:	82c1                	srli	a3,a3,0x10
    80002fae:	0176f6b3          	and	a3,a3,s7
    80002fb2:	032686b3          	mul	a3,a3,s2
    80002fb6:	96be                	add	a3,a3,a5
    80002fb8:	9281                	srli	a3,a3,0x20
    80002fba:	92b6                	add	t0,t0,a3
    80002fbc:	1361                	addi	t1,t1,-8
    80002fbe:	0b21                	addi	s6,s6,8
    80002fc0:	f86a63e3          	bltu	s4,t1,80002f46 <_ZN4core3num7dec2flt5parse12parse_number17h39618f1bbfb1114dE+0x1b0>
    80002fc4:	0e030c63          	beqz	t1,800030bc <_ZN4core3num7dec2flt5parse12parse_number17h39618f1bbfb1114dE+0x326>
    80002fc8:	86da                	mv	a3,s6
    80002fca:	9b1a                	add	s6,s6,t1
    80002fcc:	44a5                	li	s1,9
    80002fce:	4e29                	li	t3,10
    80002fd0:	0006c783          	lbu	a5,0(a3)
    80002fd4:	fd078793          	addi	a5,a5,-48
    80002fd8:	0ff7f793          	zext.b	a5,a5
    80002fdc:	0cf4ef63          	bltu	s1,a5,800030ba <_ZN4core3num7dec2flt5parse12parse_number17h39618f1bbfb1114dE+0x324>
    80002fe0:	137d                	addi	t1,t1,-1
    80002fe2:	0685                	addi	a3,a3,1
    80002fe4:	03c282b3          	mul	t0,t0,t3
    80002fe8:	92be                	add	t0,t0,a5
    80002fea:	fe0313e3          	bnez	t1,80002fd0 <_ZN4core3num7dec2flt5parse12parse_number17h39618f1bbfb1114dE+0x23a>
    80002fee:	a0f9                	j	800030bc <_ZN4core3num7dec2flt5parse12parse_number17h39618f1bbfb1114dE+0x326>
    80002ff0:	1e060463          	beqz	a2,800031d8 <_ZN4core3num7dec2flt5parse12parse_number17h39618f1bbfb1114dE+0x442>
    80002ff4:	1fb5                	addi	t6,t6,-19
    80002ff6:	02e00e13          	li	t3,46
    80002ffa:	03000393          	li	t2,48
    80002ffe:	84b2                	mv	s1,a2
    80003000:	87ae                	mv	a5,a1
    80003002:	a821                	j	8000301a <_ZN4core3num7dec2flt5parse12parse_number17h39618f1bbfb1114dE+0x284>
    80003004:	14fd                	addi	s1,s1,-1
    80003006:	0785                	addi	a5,a5,1
    80003008:	fd168713          	addi	a4,a3,-47
    8000300c:	00e6b6b3          	sltu	a3,a3,a4
    80003010:	16fd                	addi	a3,a3,-1
    80003012:	8ef9                	and	a3,a3,a4
    80003014:	40df8fb3          	sub	t6,t6,a3
    80003018:	c499                	beqz	s1,80003026 <_ZN4core3num7dec2flt5parse12parse_number17h39618f1bbfb1114dE+0x290>
    8000301a:	0007c683          	lbu	a3,0(a5)
    8000301e:	ffc683e3          	beq	a3,t3,80003004 <_ZN4core3num7dec2flt5parse12parse_number17h39618f1bbfb1114dE+0x26e>
    80003022:	fe7681e3          	beq	a3,t2,80003004 <_ZN4core3num7dec2flt5parse12parse_number17h39618f1bbfb1114dE+0x26e>
    80003026:	13f05563          	blez	t6,80003150 <_ZN4core3num7dec2flt5parse12parse_number17h39618f1bbfb1114dE+0x3ba>
    8000302a:	4281                	li	t0,0
    8000302c:	0002e697          	auipc	a3,0x2e
    80003030:	fe46b683          	ld	a3,-28(a3) # 80031010 <_data_start+0x10>
    80003034:	40c00633          	neg	a2,a2
    80003038:	43a5                	li	t2,9
    8000303a:	48a9                	li	a7,10
    8000303c:	0005c703          	lbu	a4,0(a1)
    80003040:	fd070713          	addi	a4,a4,-48
    80003044:	0ff77793          	zext.b	a5,a4
    80003048:	84b2                	mv	s1,a2
    8000304a:	02f3ea63          	bltu	t2,a5,8000307e <_ZN4core3num7dec2flt5parse12parse_number17h39618f1bbfb1114dE+0x2e8>
    8000304e:	0585                	addi	a1,a1,1
    80003050:	031282b3          	mul	t0,t0,a7
    80003054:	92be                	add	t0,t0,a5
    80003056:	00148613          	addi	a2,s1,1
    8000305a:	0056e563          	bltu	a3,t0,80003064 <_ZN4core3num7dec2flt5parse12parse_number17h39618f1bbfb1114dE+0x2ce>
    8000305e:	00163713          	seqz	a4,a2
    80003062:	df69                	beqz	a4,8000303c <_ZN4core3num7dec2flt5parse12parse_number17h39618f1bbfb1114dE+0x2a6>
    80003064:	0c56f863          	bgeu	a3,t0,80003134 <_ZN4core3num7dec2flt5parse12parse_number17h39618f1bbfb1114dE+0x39e>
    80003068:	9642                	add	a2,a2,a6
    8000306a:	8f7a                	mv	t5,t5
    8000306c:	40cf08b3          	sub	a7,t5,a2
    80003070:	a0c5                	j	80003150 <_ZN4core3num7dec2flt5parse12parse_number17h39618f1bbfb1114dE+0x3ba>
    80003072:	4489                	li	s1,2
    80003074:	a8d5                	j	80003168 <_ZN4core3num7dec2flt5parse12parse_number17h39618f1bbfb1114dE+0x3d2>
    80003076:	4881                	li	a7,0
    80003078:	4681                	li	a3,0
    8000307a:	8342                	mv	t1,a6
    8000307c:	a881                	j	800030cc <_ZN4core3num7dec2flt5parse12parse_number17h39618f1bbfb1114dE+0x336>
    8000307e:	40900833          	neg	a6,s1
    80003082:	187d                	addi	a6,a6,-1
    80003084:	0c080063          	beqz	a6,80003144 <_ZN4core3num7dec2flt5parse12parse_number17h39618f1bbfb1114dE+0x3ae>
    80003088:	0585                	addi	a1,a1,1
    8000308a:	4e25                	li	t3,9
    8000308c:	48a9                	li	a7,10
    8000308e:	4385                	li	t2,1
    80003090:	84c2                	mv	s1,a6
    80003092:	0005c603          	lbu	a2,0(a1)
    80003096:	fd060613          	addi	a2,a2,-48
    8000309a:	0ff67793          	zext.b	a5,a2
    8000309e:	8626                	mv	a2,s1
    800030a0:	0afe6463          	bltu	t3,a5,80003148 <_ZN4core3num7dec2flt5parse12parse_number17h39618f1bbfb1114dE+0x3b2>
    800030a4:	031282b3          	mul	t0,t0,a7
    800030a8:	92be                	add	t0,t0,a5
    800030aa:	fff60493          	addi	s1,a2,-1
    800030ae:	0856ee63          	bltu	a3,t0,8000314a <_ZN4core3num7dec2flt5parse12parse_number17h39618f1bbfb1114dE+0x3b4>
    800030b2:	0585                	addi	a1,a1,1
    800030b4:	fc761fe3          	bne	a2,t2,80003092 <_ZN4core3num7dec2flt5parse12parse_number17h39618f1bbfb1114dE+0x2fc>
    800030b8:	a849                	j	8000314a <_ZN4core3num7dec2flt5parse12parse_number17h39618f1bbfb1114dE+0x3b4>
    800030ba:	8b36                	mv	s6,a3
    800030bc:	406386b3          	sub	a3,t2,t1
    800030c0:	96c6                	add	a3,a3,a7
    800030c2:	407307b3          	sub	a5,t1,t2
    800030c6:	97ba                	add	a5,a5,a4
    800030c8:	00178893          	addi	a7,a5,1
    800030cc:	407607b3          	sub	a5,a2,t2
    800030d0:	973e                	add	a4,a4,a5
    800030d2:	00e68fb3          	add	t6,a3,a4
    800030d6:	4489                	li	s1,2
    800030d8:	080f8863          	beqz	t6,80003168 <_ZN4core3num7dec2flt5parse12parse_number17h39618f1bbfb1114dE+0x3d2>
    800030dc:	04030663          	beqz	t1,80003128 <_ZN4core3num7dec2flt5parse12parse_number17h39618f1bbfb1114dE+0x392>
    800030e0:	000b4683          	lbu	a3,0(s6)
    800030e4:	0206e693          	ori	a3,a3,32
    800030e8:	06500793          	li	a5,101
    800030ec:	04f69163          	bne	a3,a5,8000312e <_ZN4core3num7dec2flt5parse12parse_number17h39618f1bbfb1114dE+0x398>
    800030f0:	fff30693          	addi	a3,t1,-1
    800030f4:	cab5                	beqz	a3,80003168 <_ZN4core3num7dec2flt5parse12parse_number17h39618f1bbfb1114dE+0x3d2>
    800030f6:	001b4383          	lbu	t2,1(s6)
    800030fa:	02d00793          	li	a5,45
    800030fe:	00f38663          	beq	t2,a5,8000310a <_ZN4core3num7dec2flt5parse12parse_number17h39618f1bbfb1114dE+0x374>
    80003102:	02b00793          	li	a5,43
    80003106:	08f39063          	bne	t2,a5,80003186 <_ZN4core3num7dec2flt5parse12parse_number17h39618f1bbfb1114dE+0x3f0>
    8000310a:	ffe30693          	addi	a3,t1,-2
    8000310e:	cea9                	beqz	a3,80003168 <_ZN4core3num7dec2flt5parse12parse_number17h39618f1bbfb1114dE+0x3d2>
    80003110:	002b4303          	lbu	t1,2(s6)
    80003114:	002b0793          	addi	a5,s6,2
    80003118:	fd030713          	addi	a4,t1,-48
    8000311c:	0ff77713          	zext.b	a4,a4
    80003120:	4325                	li	t1,9
    80003122:	04e36363          	bltu	t1,a4,80003168 <_ZN4core3num7dec2flt5parse12parse_number17h39618f1bbfb1114dE+0x3d2>
    80003126:	a895                	j	8000319a <_ZN4core3num7dec2flt5parse12parse_number17h39618f1bbfb1114dE+0x404>
    80003128:	4f01                	li	t5,0
    8000312a:	4305                	li	t1,1
    8000312c:	bb71                	j	80002ec8 <_ZN4core3num7dec2flt5parse12parse_number17h39618f1bbfb1114dE+0x132>
    8000312e:	4301                	li	t1,0
    80003130:	4f01                	li	t5,0
    80003132:	bb59                	j	80002ec8 <_ZN4core3num7dec2flt5parse12parse_number17h39618f1bbfb1114dE+0x132>
    80003134:	577d                	li	a4,-1
    80003136:	0ae48163          	beq	s1,a4,800031d8 <_ZN4core3num7dec2flt5parse12parse_number17h39618f1bbfb1114dE+0x442>
    8000313a:	40c00833          	neg	a6,a2
    8000313e:	187d                	addi	a6,a6,-1
    80003140:	f40814e3          	bnez	a6,80003088 <_ZN4core3num7dec2flt5parse12parse_number17h39618f1bbfb1114dE+0x2f2>
    80003144:	4481                	li	s1,0
    80003146:	a011                	j	8000314a <_ZN4core3num7dec2flt5parse12parse_number17h39618f1bbfb1114dE+0x3b4>
    80003148:	84b2                	mv	s1,a2
    8000314a:	410488b3          	sub	a7,s1,a6
    8000314e:	98fa                	add	a7,a7,t5
    80003150:	01f025b3          	sgtz	a1,t6
    80003154:	4489                	li	s1,2
    80003156:	00030963          	beqz	t1,80003168 <_ZN4core3num7dec2flt5parse12parse_number17h39618f1bbfb1114dE+0x3d2>
    8000315a:	01153023          	sd	a7,0(a0)
    8000315e:	00553423          	sd	t0,8(a0)
    80003162:	00050823          	sb	zero,16(a0)
    80003166:	84ae                	mv	s1,a1
    80003168:	009508a3          	sb	s1,17(a0)
    8000316c:	60e6                	ld	ra,88(sp)
    8000316e:	6446                	ld	s0,80(sp)
    80003170:	64a6                	ld	s1,72(sp)
    80003172:	6906                	ld	s2,64(sp)
    80003174:	79e2                	ld	s3,56(sp)
    80003176:	7a42                	ld	s4,48(sp)
    80003178:	7aa2                	ld	s5,40(sp)
    8000317a:	7b02                	ld	s6,32(sp)
    8000317c:	6be2                	ld	s7,24(sp)
    8000317e:	6c42                	ld	s8,16(sp)
    80003180:	6ca2                	ld	s9,8(sp)
    80003182:	6125                	addi	sp,sp,96
    80003184:	8082                	ret
    80003186:	001b0793          	addi	a5,s6,1
    8000318a:	831e                	mv	t1,t2
    8000318c:	fd038713          	addi	a4,t2,-48
    80003190:	0ff77713          	zext.b	a4,a4
    80003194:	4325                	li	t1,9
    80003196:	fce369e3          	bltu	t1,a4,80003168 <_ZN4core3num7dec2flt5parse12parse_number17h39618f1bbfb1114dE+0x3d2>
    8000319a:	4f01                	li	t5,0
    8000319c:	4e29                	li	t3,10
    8000319e:	6ec1                	lui	t4,0x10
    800031a0:	a021                	j	800031a8 <_ZN4core3num7dec2flt5parse12parse_number17h39618f1bbfb1114dE+0x412>
    800031a2:	16fd                	addi	a3,a3,-1
    800031a4:	0785                	addi	a5,a5,1
    800031a6:	ce99                	beqz	a3,800031c4 <_ZN4core3num7dec2flt5parse12parse_number17h39618f1bbfb1114dE+0x42e>
    800031a8:	0007c703          	lbu	a4,0(a5)
    800031ac:	fd070713          	addi	a4,a4,-48
    800031b0:	0ff77493          	zext.b	s1,a4
    800031b4:	00936863          	bltu	t1,s1,800031c4 <_ZN4core3num7dec2flt5parse12parse_number17h39618f1bbfb1114dE+0x42e>
    800031b8:	ffdf55e3          	bge	t5,t4,800031a2 <_ZN4core3num7dec2flt5parse12parse_number17h39618f1bbfb1114dE+0x40c>
    800031bc:	03cf0f33          	mul	t5,t5,t3
    800031c0:	9f26                	add	t5,t5,s1
    800031c2:	b7c5                	j	800031a2 <_ZN4core3num7dec2flt5parse12parse_number17h39618f1bbfb1114dE+0x40c>
    800031c4:	02d00713          	li	a4,45
    800031c8:	00e39463          	bne	t2,a4,800031d0 <_ZN4core3num7dec2flt5parse12parse_number17h39618f1bbfb1114dE+0x43a>
    800031cc:	41e00f33          	neg	t5,t5
    800031d0:	98fa                	add	a7,a7,t5
    800031d2:	0016b313          	seqz	t1,a3
    800031d6:	b9cd                	j	80002ec8 <_ZN4core3num7dec2flt5parse12parse_number17h39618f1bbfb1114dE+0x132>
    800031d8:	0001c517          	auipc	a0,0x1c
    800031dc:	81850613          	addi	a2,a0,-2024 # 8001e9f0 <$d.511>
    800031e0:	4505                	li	a0,1
    800031e2:	4581                	li	a1,0
    800031e4:	0000e097          	auipc	ra,0xe
    800031e8:	b52080e7          	jalr	-1198(ra) # 80010d36 <_ZN4core5slice5index26slice_start_index_len_fail17he5b7f0dd70a228d8E>

00000000800031ec <_ZN74_$LT$core..num..dec2flt..ParseFloatError$u20$as$u20$core..fmt..Display$GT$3fmt17h4eb967893baf3220E>:
    800031ec:	1141                	addi	sp,sp,-16
    800031ee:	e406                	sd	ra,8(sp)
    800031f0:	e022                	sd	s0,0(sp)
    800031f2:	0800                	addi	s0,sp,16
    800031f4:	00054603          	lbu	a2,0(a0)
    800031f8:	852e                	mv	a0,a1
    800031fa:	ce09                	beqz	a2,80003214 <_ZN74_$LT$core..num..dec2flt..ParseFloatError$u20$as$u20$core..fmt..Display$GT$3fmt17h4eb967893baf3220E+0x28>
    800031fc:	0001c597          	auipc	a1,0x1c
    80003200:	83058593          	addi	a1,a1,-2000 # 8001ea2c <$d.513>
    80003204:	4655                	li	a2,21
    80003206:	60a2                	ld	ra,8(sp)
    80003208:	6402                	ld	s0,0(sp)
    8000320a:	0141                	addi	sp,sp,16
